(dp1
S'steps'
p2
(lp3
I70
aI66
aI39
aI68
aI70
aI68
aI39
aI68
aI65
aI65
aI68
aI68
aI68
aI65
aI68
aI68
aI68
aI68
aI68
aI68
aI68
aI68
aI68
aI63
aI94
aI68
aI68
aI68
aI68
aI68
aI68
aI70
aI68
aI68
aI68
aI52
aI39
aI68
aI68
aI68
aI68
aI68
aI54
aI63
aI65
aI68
aI68
aI68
aI68
aI68
aI68
aI68
aI68
aI68
aI125
aI68
aI39
aI68
aI68
aI68
aI67
aI65
aI65
aI68
aI68
aI68
aI51
aI68
aI67
aI68
aI49
aI68
aI68
aI65
aI67
aI64
aI68
aI92
aI68
aI63
aI65
aI94
aI60
aI67
aI62
aI62
aI61
aI97
aI122
aI62
aI61
aI62
aI62
aI64
aI50
aI36
aI62
aI95
aI36
aI63
aI93
aI119
aI51
aI92
aI56
aI67
aI69
aI82
aI82
aI67
aI51
aI39
aI99
aI62
aI62
aI62
aI62
aI62
aI67
aI68
aI39
aI83
aI142
aI82
aI82
aI82
aI68
aI68
aI49
aI49
aI68
aI68
aI68
aI68
aI68
aI39
aI68
aI68
aI68
aI68
aI68
aI70
aI68
aI70
aI68
aI64
aI68
aI68
aI68
aI68
aI68
aI68
aI68
aI68
aI68
aI68
aI68
aI68
aI68
aI68
aI68
aI63
aI68
aI39
aI39
aI64
aI68
aI64
aI68
aI79
aI39
aI68
aI39
aI64
aI39
aI91
aI69
aI121
aI79
aI80
aI69
aI64
aI90
aI97
aI64
aI70
aI79
aI39
aI39
aI96
aI70
aI64
aI66
aI81
aI94
aI79
aI52
aI49
aI90
aI65
aI65
aI65
aI92
aI57
aI57
aI65
aI52
aI63
aI57
aI57
aI65
aI66
aI68
aI65
aI39
aI65
aI65
aI65
aI69
aI79
aI80
aI40
aI65
aI65
aI65
aI57
aI57
aI65
aI91
aI65
aI65
aI65
aI83
aI65
aI65
aI65
aI107
aI65
aI39
aI39
aI62
aI68
aI68
aI68
aI39
aI68
aI50
aI68
aI68
aI68
aI68
aI68
aI52
aI68
aI68
aI63
aI68
aI52
aI68
aI64
aI65
aI39
aI49
aI64
aI64
aI88
aI64
aI68
aI64
aI39
aI68
aI94
aI64
aI64
aI64
aI64
aI64
aI66
aI90
aI64
aI65
aI39
aI65
aI68
aI91
aI64
aI64
aI68
aI39
aI68
aI64
aI64
aI39
aI64
aI64
aI64
aI39
aI64
aI64
aI66
aI64
aI68
aI39
aI64
aI64
aI64
aI64
aI70
aI63
aI39
aI53
aI68
aI68
aI68
aI68
aI90
aI49
aI63
aI68
aI68
aI39
aI68
aI68
aI65
aI64
aI68
aI68
aI68
aI68
aI68
aI68
aI64
aI68
aI39
aI68
aI68
aI68
aI68
aI68
aI66
aI68
aI68
aI68
aI68
aI68
aI68
aI63
aI65
aI68
aI64
aI68
aI68
aI68
aI68
aI68
aI68
aI66
aI68
aI68
aI68
aI68
aI63
aI68
aI64
aI70
aI68
aI68
aI53
aI65
aI70
aI68
aI65
aI68
aI68
aI90
aI68
aI68
aI94
aI68
aI68
aI68
aI68
aI68
aI63
aI68
aI63
aI68
aI68
aI68
aI68
aI68
aI49
aI70
aI68
aI70
aI68
aI39
aI68
aI63
aI68
aI68
aI64
aI70
aI68
aI63
aI64
aI52
aI53
aI65
aI68
aI68
aI68
aI68
aI68
aI68
aI39
aI68
aI68
aI39
aI68
aI68
aI65
aI65
aI68
aI68
aI68
aI64
aI64
aI64
aI63
aI65
aI82
aI82
aI84
aI92
aI64
aI64
aI68
aI68
aI70
aI64
aI64
aI64
aI63
aI64
aI70
aI64
aI64
aI64
aI64
aI64
aI69
aI64
aI64
aI39
aI64
aI64
aI64
aI64
aI64
aI64
aI64
aI39
aI64
aI68
aI68
aI49
aI64
aI64
aI64
aI39
aI64
aI64
aI64
aI64
aI64
aI65
aI64
aI72
aI98
aI70
aI64
aI70
aI49
aI53
aI64
aI63
aI64
aI70
aI70
aI68
aI72
aI39
aI63
aI68
aI68
aI93
aI68
aI97
aI69
aI68
aI68
aI68
aI64
aI39
aI70
aI40
aI72
aI70
aI85
aI94
aI85
aI70
aI70
aI39
aI66
aI71
aI70
aI70
aI63
aI85
aI63
aI94
aI69
aI91
aI85
aI68
aI93
aI51
aI67
aI39
aI51
aI63
aI62
aI62
aI61
aI68
aI68
aI61
aI62
aI62
aI62
aI62
aI50
aI49
aI65
aI92
aI92
aI49
aI53
aI51
aI51
aI90
aI39
aI64
aI52
aI69
aI39
aI62
aI62
aI62
aI109
aI62
aI52
aI52
aI38
aI62
aI61
aI41
aI68
aI39
aI81
aI82
aI82
aI82
aI82
aI82
aI65
aI82
aI64
aI92
aI93
aI39
aI68
aI68
aI68
aI70
aI68
aI70
aI68
aI70
aI53
aI53
aI68
aI66
aI62
aI61
aI62
aI62
aI50
aI40
aI92
aI62
aI62
aI57
aI37
aI62
aI41
aI40
aI93
aI62
aI62
aI92
aI62
aI62
aI36
aI36
aI61
aI62
aI62
aI79
aI66
aI62
aI62
aI62
aI64
aI61
aI62
aI62
aI92
aI63
aI62
aI62
aI64
aI51
aI62
aI50
aI88
aI124
aI66
aI62
aI70
aI62
aI62
aI68
aI83
aI82
aI82
aI51
aI123
aI62
aI37
aI67
aI52
aI51
aI51
aI51
aI67
aI82
aI82
aI82
aI82
aI67
aI92
aI49
aI95
aI68
aI68
aI52
aI68
aI49
aI68
aI91
aI67
aI65
aI82
aI67
aI69
aI39
aI82
aI70
aI127
aI83
aI82
aI82
aI82
aI68
aI60
aI63
aI55
aI66
aI64
aI158
aI95
aI125
aI68
aI68
aI85
aI93
aI84
aI51
aI52
aI111
aI62
aI65
aI64
aI74
aI111
aI102
aI68
aI92
aI62
aI111
aI96
aI62
aI52
aI62
aI90
aI51
aI92
aI105
aI105
aI53
aI56
aI68
aI63
aI52
aI64
aI121
aI112
aI120
aI52
aI52
aI55
aI89
aI57
aI68
aI90
aI66
aI64
aI63
aI64
aI66
aI86
aI60
aI69
aI81
aI53
aI53
aI53
aI95
aI41
aI67
aI66
aI82
aI82
aI84
aI67
aI84
aI87
aI70
aI69
aI66
aI121
aI52
aI92
aI49
aI63
aI81
aI112
aI61
aI55
aI63
aI49
aI52
aI66
aI93
aI65
aI50
aI86
aI49
aI83
aI83
aI90
aI41
aI115
aI110
aI61
aI91
aI120
aI86
aI63
aI64
aI68
aI130
aI51
aI67
aI53
aI64
aI50
aI53
aI50
aI50
aI50
aI50
aI50
aI50
aI63
aI64
aI63
aI36
aI94
aI57
aI50
aI116
aI74
aI66
aI51
aI152
aI127
aI49
aI82
aI68
aI68
aI69
aI68
aI68
aI68
aI64
aI68
aI68
aI89
aI95
aI66
aI68
aI68
aI68
aI39
aI70
aI68
aI91
aI95
aI64
aI69
aI53
aI68
aI67
aI65
aI91
aI67
aI68
aI65
aI68
aI39
aI64
aI67
aI67
aI49
aI70
aI49
aI67
aI64
aI51
aI52
aI70
aI39
aI84
aI81
aI82
aI82
aI51
aI81
aI86
aI68
aI68
aI39
aI68
aI68
aI64
aI68
aI68
aI65
aI68
aI53
aI68
aI68
aI128
aI64
aI67
aI67
aI65
aI64
aI68
aI68
aI68
aI65
aI84
aI51
aI66
aI51
aI67
aI68
aI39
aI65
aI51
aI74
aI52
aI62
aI37
aI62
aI62
aI62
aI61
aI62
aI62
aI62
aI38
aI37
aI62
aI63
aI81
aI82
aI84
aI100
aI67
aI125
aI62
aI62
aI93
aI69
aI92
aI117
aI53
aI94
aI34
aI34
aI39
aI58
aI52
aI52
aI66
aI82
aI69
aI123
aI62
aI41
aI90
aI37
aI92
aI62
aI62
aI62
aI88
aI82
aI65
aI68
aI94
aI49
aI68
aI68
aI68
aI96
aI68
aI69
aI62
aI62
aI61
aI61
aI38
aI62
aI62
aI61
aI92
aI62
aI38
aI62
aI62
aI61
aI93
aI62
aI38
aI62
aI62
aI92
aI66
aI62
aI38
aI62
aI62
aI62
aI62
aI62
aI36
aI62
aI123
aI65
aI66
aI68
aI67
aI65
aI41
aI68
aI69
aI62
aI62
aI64
aI68
aI65
aI68
aI68
aI70
aI68
aI67
aI68
aI53
aI68
aI68
aI68
aI68
aI70
aI68
aI95
aI53
aI68
aI39
aI53
aI64
aI82
aI82
aI71
aI69
aI82
aI87
aI82
aI86
aI67
aI82
aI85
aI82
aI51
aI82
aI39
aI40
aI61
aI64
aI66
aI89
aI68
aI93
aI53
aI68
aI67
aI65
aI84
aI51
aI82
aI82
aI82
aI65
aI81
aI82
aI51
aI82
aI51
aI68
aI66
aI65
aI65
aI93
aI38
aI65
aI39
aI39
aI39
aI39
aI65
aI65
aI68
aI65
aI65
aI65
aI65
aI65
aI65
aI63
aI54
aI64
aI66
aI65
aI66
aI66
aI66
aI65
aI65
aI94
aI68
aI71
aI63
aI61
aI64
aI62
aI92
aI62
aI92
aI61
aI37
aI62
aI61
aI62
aI41
aI62
aI62
aI62
aI62
aI35
aI67
aI67
aI62
aI62
aI62
aI63
aI62
aI40
aI38
aI67
aI62
aI62
aI64
aI64
aI93
aI62
aI51
aI51
aI62
aI62
aI62
aI95
aI65
aI84
aI83
aI64
aI68
aI68
aI68
aI92
aI70
aI66
aI63
aI68
aI39
aI93
aI113
aI95
aI96
aI41
aI66
aI64
aI68
aI68
aI68
aI68
aI68
aI64
aI68
aI83
aI81
aI84
aI82
aI65
aI51
aI61
aI68
aI82
aI46
aI50
aI71
aI68
aI70
aI67
aI70
aI40
aI40
aI83
aI40
aI67
aI141
aI68
aI66
aI108
aI124
aI96
aI57
aI62
aI69
aI79
aI69
aI66
aI122
aI68
aI84
aI94
aI62
aI62
aI62
aI62
aI93
aI91
aI51
aI92
aI51
aI94
aI50
aI62
aI71
aI49
aI122
aI97
aI69
aI65
aI109
aI97
aI68
aI68
aI65
aI92
aI51
aI70
aI71
aI44
aI55
aI66
aI51
aI86
aI70
aI67
aI65
aI93
aI104
aI122
aI37
aI62
aI36
aI36
aI68
aI52
aI82
aI82
aI82
aI81
aI82
aI110
aI82
aI49
aI64
aI38
aI62
aI38
aI38
aI95
aI53
aI68
aI65
aI65
aI90
aI67
aI91
aI64
aI68
aI92
aI86
aI92
aI65
aI123
aI68
aI39
aI96
aI39
aI64
aI51
aI82
aI84
aI68
aI49
aI68
aI68
aI64
aI69
aI109
aI82
aI81
aI82
aI71
aI66
aI140
aI39
aI66
aI68
aI64
aI68
aI64
aI70
aI64
aI68
aI67
aI68
aI68
aI70
aI68
aI39
aI64
aI64
aI106
aI67
aI68
aI68
aI39
aI39
aI66
aI70
aI64
aI65
aI110
aI66
aI66
aI122
aI82
aI82
aI82
aI82
aI62
aI63
aI52
aI52
aI52
aI52
aI52
aI68
aI68
aI68
aI68
aI68
aI68
aI68
aI68
aI64
aI64
aI68
aI68
aI68
aI68
aI64
aI68
aI68
aI68
aI68
aI90
aI70
aI68
aI68
aI68
aI68
aI63
aI39
aI52
aI52
aI68
aI70
aI68
aI70
aI68
aI68
aI68
aI68
aI64
aI64
aI68
aI68
aI52
aI63
aI77
aI64
aI45
aI61
aI62
aI62
aI62
aI62
aI62
aI49
aI68
aI39
aI51
aI39
aI68
aI68
aI68
aI70
aI68
aI51
aI68
aI68
aI70
aI63
aI68
aI68
aI68
aI68
aI64
aI94
aI68
aI63
aI63
aI80
aI68
aI92
aI63
aI94
aI162
aI39
aI81
aI69
aI81
aI49
aI68
aI68
aI52
aI69
aI69
aI68
aI49
aI65
aI70
aI68
aI68
aI68
aI68
aI63
aI49
aI40
aI68
aI93
aI68
aI68
aI68
aI68
aI49
aI95
aI68
aI68
aI91
aI49
aI68
aI68
aI68
aI68
aI39
aI68
aI49
aI69
aI64
aI49
aI39
aI93
aI70
aI68
aI68
aI66
aI39
aI68
aI70
aI82
aI82
aI82
aI82
aI82
aI82
aI82
aI82
aI82
aI82
aI56
aI66
aI82
aI82
aI102
aI70
aI66
aI154
aI82
aI83
aI67
aI111
aI65
aI66
aI52
aI51
aI66
aI101
aI66
aI82
aI82
aI82
aI51
aI83
aI51
aI111
aI82
aI82
aI82
aI82
aI108
aI110
aI82
aI66
aI82
aI70
aI111
aI84
aI83
aI81
aI39
aI82
aI81
aI73
aI65
aI66
aI66
aI68
aI64
aI39
aI68
aI66
aI69
aI65
aI50
aI83
aI71
aI44
aI151
aI53
aI68
aI95
aI65
aI63
aI80
aI69
aI65
aI65
aI82
aI55
aI76
aI82
aI49
aI66
aI50
aI45
aI68
aI39
aI63
aI68
aI93
aI62
aI62
aI62
aI62
aI62
aI62
aI63
aI62
aI37
aI62
aI92
aI50
aI95
aI95
aI62
aI62
aI115
aI98
aI62
aI62
aI62
aI62
aI63
aI36
aI36
aI38
aI62
aI62
aI62
aI64
aI68
aI62
aI51
aI41
aI63
aI62
aI62
aI52
aI51
aI96
aI61
aI63
aI62
aI34
aI62
aI62
aI67
aI68
aI105
aI66
aI82
aI84
aI48
aI111
aI203
aI49
aI65
aI93
aI50
aI69
aI92
aI50
aI62
aI62
aI63
aI40
aI95
aI62
aI66
aI69
aI63
aI70
aI66
aI127
aI36
aI62
aI76
aI66
aI129
aI69
aI67
aI70
aI70
aI94
aI51
aI63
aI51
aI36
aI101
aI51
aI97
aI51
aI52
aI63
aI69
aI65
aI67
aI64
aI65
aI53
aI98
aI95
aI65
aI65
aI123
aI63
aI70
aI65
aI109
aI95
aI98
aI70
aI62
aI62
aI37
aI101
aI68
aI68
aI82
aI66
aI65
aI93
aI70
aI68
aI68
aI68
aI68
aI68
aI68
aI66
aI68
aI68
aI68
aI68
aI64
aI52
aI64
aI67
aI72
aI39
aI68
aI39
aI67
aI49
aI65
aI49
aI68
aI49
aI49
aI68
aI49
aI70
aI39
aI39
aI39
aI88
aI98
aI98
aI39
aI52
aI67
aI68
aI73
aI49
aI95
aI49
aI39
aI39
aI39
aI78
aI88
aI68
aI39
aI68
aI68
aI49
aI64
aI67
aI50
aI65
aI49
aI54
aI81
aI62
aI62
aI62
aI62
aI62
aI41
aI63
aI62
aI38
aI62
aI63
aI70
aI68
aI68
aI68
aI68
aI68
aI68
aI68
aI68
aI68
aI94
aI52
aI69
aI68
aI68
aI90
aI53
aI49
aI68
aI68
aI39
aI64
aI49
aI39
aI95
aI53
aI69
aI67
aI67
aI64
aI69
aI66
aI66
aI67
aI95
aI68
aI94
aI70
aI68
aI67
aI67
aI82
aI97
aI82
aI69
aI158
aI84
aI66
aI49
aI66
aI68
aI68
aI68
aI68
aI39
aI68
aI68
aI68
aI68
aI65
aI80
aI62
aI38
aI67
aI62
aI62
aI62
aI66
aI63
aI48
aI62
aI63
aI37
aI62
aI92
aI62
aI62
aI61
aI61
aI62
aI37
aI62
aI62
aI62
aI62
aI63
aI62
aI62
aI62
aI62
aI62
aI96
aI62
aI42
aI62
aI62
aI38
aI64
aI37
aI51
aI63
aI62
aI61
aI62
aI50
aI62
aI62
aI62
aI62
aI62
aI122
aI63
aI95
aI62
aI80
aI62
aI62
aI63
aI50
aI96
aI93
aI62
aI62
aI62
aI62
aI62
aI62
aI109
aI61
aI62
aI38
aI62
aI62
aI61
aI62
aI63
aI62
aI62
aI91
aI38
aI62
aI50
aI62
aI61
aI93
aI62
aI67
aI62
aI62
aI62
aI62
aI61
aI63
aI66
aI58
aI67
aI62
aI38
aI62
aI62
aI94
aI62
aI109
aI37
aI66
aI62
aI63
aI62
aI63
aI62
aI66
aI60
aI62
aI51
aI69
aI62
aI63
aI62
aI61
aI92
aI62
aI64
aI67
aI62
aI62
aI39
aI62
aI62
aI38
aI62
aI63
aI62
aI62
aI62
aI109
aI41
aI62
aI52
aI66
aI61
aI62
aI109
aI62
aI37
aI62
aI61
aI62
aI61
aI62
aI94
aI108
aI62
aI38
aI62
aI66
aI62
aI37
aI62
aI62
aI61
aI62
aI62
aI51
aI96
aI62
aI62
aI65
aI49
aI64
aI111
aI82
aI66
aI65
aI62
aI62
aI63
aI62
aI39
aI66
aI65
aI82
aI70
aI82
aI82
aI51
aI45
aI82
aI82
aI82
aI82
aI81
aI83
aI84
aI82
aI82
aI81
aI82
aI82
aI51
aI83
aI66
aI105
aI97
aI81
aI39
aI82
aI108
aI82
aI137
aI81
aI102
aI65
aI92
aI51
aI82
aI82
aI84
aI83
aI66
aI66
aI55
aI39
aI68
aI66
aI91
aI52
aI49
aI68
aI83
aI49
aI49
aI68
aI66
aI68
aI49
aI66
aI68
aI68
aI68
aI92
aI68
aI68
aI68
aI68
aI64
aI68
aI68
aI49
aI68
aI95
aI68
aI50
aI68
aI39
aI81
aI82
aI66
aI83
aI82
aI83
aI82
aI86
aI51
aI53
aI67
aI99
aI62
aI62
aI92
aI62
aI62
aI37
aI62
aI65
aI119
aI36
aI70
aI123
aI70
aI63
aI52
aI68
aI92
aI68
aI64
aI69
aI39
aI70
aI39
aI122
aI80
aI68
aI68
aI68
aI49
aI70
aI39
aI90
aI65
aI68
aI93
aI67
aI67
aI50
aI67
aI69
aI49
aI66
aI49
aI52
aI52
aI68
aI65
aI64
aI70
aI66
aI68
aI40
aI49
aI68
aI63
aI93
aI68
aI90
aI68
aI64
aI69
aI70
aI68
aI68
aI49
aI70
aI70
aI68
aI52
aI65
aI67
aI93
aI94
aI94
aI66
aI93
aI68
aI68
aI68
aI91
aI70
aI68
aI68
aI64
aI68
aI65
aI66
aI68
aI73
aI64
aI70
aI49
aI69
aI49
aI156
aI70
aI90
aI70
aI70
aI68
aI69
aI70
aI64
aI70
aI92
aI53
aI64
aI70
aI70
aI70
aI66
aI39
aI68
aI65
aI68
aI64
aI69
aI69
aI82
aI53
aI81
aI67
aI82
aI51
aI82
aI51
aI81
aI84
aI65
aI82
aI82
aI82
aI82
aI66
aI67
aI39
aI68
aI82
aI83
aI82
aI82
aI66
aI66
aI65
aI52
aI55
aI91
aI39
aI82
aI158
aI68
aI66
aI63
aI109
aI63
aI62
aI62
aI36
aI62
aI39
aI98
aI120
aI62
aI62
aI38
aI61
aI41
aI111
aI62
aI62
aI65
aI52
aI94
aI49
aI95
aI68
aI68
aI95
aI50
aI68
aI68
aI49
aI49
aI69
aI49
aI69
aI69
aI68
aI68
aI68
aI49
aI67
aI52
aI67
aI67
aI82
aI82
aI82
aI51
aI68
aI88
aI86
aI70
aI65
aI82
aI118
aI106
aI82
aI81
aI70
aI96
aI39
aI68
aI70
aI66
aI39
aI68
aI90
aI68
aI68
aI68
aI68
aI69
aI64
aI69
aI64
aI69
aI110
aI70
aI70
aI70
aI70
aI70
aI66
aI65
aI70
aI64
aI64
aI64
aI125
aI94
aI70
aI70
aI70
aI39
aI70
aI68
aI69
aI53
aI70
aI70
aI92
aI70
aI64
aI70
aI68
aI65
aI93
aI70
aI63
aI66
aI70
aI70
aI70
aI63
aI69
aI53
aI70
aI69
aI70
aI69
aI90
aI64
aI70
aI63
aI69
aI70
aI70
aI70
aI69
aI70
aI68
aI68
aI64
aI69
aI69
aI70
aI70
aI70
aI76
aI72
aI90
aI64
aI65
aI90
aI90
aI64
aI90
aI65
aI69
aI68
aI68
aI94
aI39
aI68
aI39
aI39
aI69
aI69
aI49
aI70
aI68
aI69
aI70
aI90
aI69
aI68
aI63
aI69
aI39
aI69
aI68
aI68
aI69
aI63
aI68
aI96
aI39
aI90
aI65
aI68
aI68
aI39
aI96
aI95
aI70
aI90
aI90
aI68
aI67
aI85
aI68
aI68
aI68
aI96
aI68
aI94
aI68
aI64
aI65
aI71
aI70
aI65
aI69
aI68
aI68
aI68
aI68
aI66
aI69
aI69
aI39
aI91
aI69
aI69
aI39
aI69
aI69
aI69
aI68
aI64
aI68
aI68
aI39
aI68
aI69
aI95
aI68
aI69
aI68
aI66
aI68
aI68
aI69
aI70
aI68
aI68
aI68
aI68
aI39
aI68
aI69
aI65
aI69
aI69
aI69
aI68
aI69
aI70
aI66
aI68
aI53
aI69
aI64
aI70
aI70
aI70
aI39
aI68
aI63
aI70
aI68
aI68
aI49
aI68
aI70
aI70
aI63
aI68
aI70
aI70
aI70
aI70
aI70
aI70
aI70
aI70
aI70
aI70
aI138
aI70
aI69
aI70
aI70
aI67
aI64
aI70
aI70
aI70
aI70
aI70
aI65
aI63
aI70
aI70
aI65
aI69
aI93
aI70
aI39
aI69
aI67
aI39
aI69
aI70
aI70
aI69
aI92
aI94
aI64
aI64
aI51
aI67
aI66
aI66
aI66
aI40
aI122
aI66
aI66
aI66
aI66
aI66
aI66
aI66
aI68
aI70
aI65
aI66
aI66
aI65
aI66
aI66
aI40
aI66
aI69
aI66
aI70
aI65
aI65
aI70
aI66
aI66
aI66
aI65
aI66
aI66
aI64
aI106
aI100
aI91
aI67
aI66
aI66
aI52
aI92
aI81
aI66
aI95
aI66
aI67
aI66
aI91
aI66
aI66
aI66
aI66
aI68
aI66
aI67
aI66
aI68
aI67
aI66
aI66
aI72
aI67
aI66
aI66
aI66
aI66
aI66
aI66
aI66
aI66
aI66
aI84
aI65
aI82
aI82
aI83
aI69
aI82
aI68
aI66
aI51
aI66
aI66
aI81
aI83
aI133
aI84
aI81
aI51
aI82
aI65
aI51
aI100
aI39
aI81
aI50
aI85
aI81
aI95
aI49
aI64
aI81
aI82
aI82
aI41
aI39
aI69
aI126
aI70
aI82
aI67
aI67
aI97
aI89
aI67
aI88
aI64
aI49
aI68
aI68
aI95
aI68
aI68
aI68
aI68
aI68
aI68
aI92
aI89
aI68
aI68
aI63
aI68
aI68
aI49
aI61
aI68
aI68
aI99
aI68
aI64
aI68
aI94
aI68
aI63
aI68
aI49
aI49
aI68
aI68
aI51
aI68
aI92
aI68
aI92
aI92
aI65
aI68
aI39
aI65
aI52
aI106
aI49
aI68
aI63
aI68
aI49
aI68
aI68
aI68
aI63
aI68
aI49
aI70
aI68
aI69
aI68
aI50
aI49
aI95
aI65
aI89
aI69
aI49
aI64
aI68
aI64
aI68
aI66
aI64
aI63
aI69
aI66
aI68
aI68
aI39
aI63
aI68
aI68
aI91
aI81
aI68
aI68
aI67
aI39
aI68
aI63
aI64
aI49
aI52
aI68
aI63
aI64
aI68
aI67
aI69
aI68
aI69
aI68
aI53
aI89
aI39
aI68
aI39
aI53
aI49
aI63
aI70
aI66
aI50
aI68
aI49
aI68
aI49
aI68
aI122
aI68
aI68
aI68
aI49
aI68
aI89
aI89
aI69
aI68
aI51
aI66
aI39
aI94
aI65
aI66
aI68
aI68
aI39
aI66
aI66
aI68
aI89
aI49
aI68
aI68
aI68
aI68
aI90
aI70
aI68
aI68
aI68
aI51
aI68
aI68
aI68
aI68
aI49
aI68
aI49
aI67
aI70
aI70
aI67
aI52
aI68
aI68
aI68
aI68
aI64
aI68
aI49
aI69
aI49
aI69
aI68
aI68
aI49
aI92
aI64
aI90
aI68
aI68
aI68
aI68
aI67
aI68
aI68
aI69
aI68
aI68
aI66
aI68
aI68
aI68
aI68
aI49
aI68
aI69
aI68
aI49
aI68
aI68
aI68
aI65
aI68
aI68
aI68
aI65
aI39
aI70
aI65
aI68
aI66
aI68
aI89
aI102
aI68
aI68
aI49
aI68
aI68
aI68
aI68
aI69
aI68
aI39
aI66
aI65
aI52
aI49
aI68
aI68
aI68
aI50
aI68
aI89
aI70
aI68
aI91
aI64
aI70
aI68
aI39
aI66
aI94
aI58
aI66
aI68
aI119
aI66
aI91
aI53
aI68
aI68
aI68
aI68
aI39
aI69
aI68
aI70
aI63
aI68
aI53
aI68
aI68
aI67
aI68
aI63
aI66
aI68
aI68
aI65
aI50
aI39
aI54
aI39
aI88
aI68
aI51
aI64
aI70
aI37
aI51
aI68
aI45
aI68
aI40
aI68
aI63
aI92
aI68
aI71
aI80
aI39
aI52
aI68
aI68
aI68
aI49
aI68
aI68
aI52
aI64
aI68
aI68
aI68
aI52
aI39
aI90
aI68
aI92
aI68
aI68
aI91
aI68
aI68
aI67
aI37
aI49
aI68
aI49
aI64
aI68
aI70
aI68
aI67
aI68
aI63
aI68
aI50
aI65
aI39
aI64
aI88
aI68
aI68
aI49
asS'reward'
p4
(lp5
F20
aF5
aF5
aF0
aF60
aF0
aF5
aF0
aF15
aF15
aF0
aF0
aF0
aF0
aF0
aF0
aF0
aF0
aF0
aF0
aF0
aF0
aF0
aF0
aF0
aF0
aF0
aF0
aF0
aF0
aF0
aF15
aF0
aF0
aF0
aF0
aF15
aF0
aF0
aF0
aF0
aF0
aF5
aF0
aF15
aF0
aF0
aF0
aF0
aF0
aF0
aF0
aF0
aF0
aF30
aF0
aF5
aF0
aF0
aF0
aF0
aF0
aF0
aF0
aF0
aF0
aF15
aF0
aF0
aF0
aF0
aF0
aF0
aF30
aF75
aF15
aF0
aF15
aF0
aF0
aF0
aF0
aF0
aF0
aF0
aF0
aF0
aF30
aF0
aF20
aF0
aF0
aF0
aF20
aF5
aF0
aF5
aF0
aF0
aF15
aF0
aF0
aF0
aF0
aF10
aF5
aF105
aF180
aF180
aF50
aF0
aF15
aF0
aF0
aF0
aF0
aF0
aF0
aF15
aF0
aF30
aF180
aF465
aF180
aF180
aF210
aF0
aF0
aF0
aF20
aF15
aF0
aF0
aF0
aF0
aF5
aF0
aF0
aF0
aF0
aF0
aF0
aF0
aF15
aF0
aF15
aF0
aF0
aF0
aF0
aF0
aF0
aF0
aF0
aF0
aF0
aF0
aF0
aF0
aF0
aF0
aF0
aF0
aF0
aF15
aF5
aF0
aF5
aF0
aF0
aF0
aF0
aF5
aF5
aF5
aF25
aF0
aF0
aF0
aF0
aF0
aF15
aF0
aF15
aF5
aF0
aF0
aF5
aF5
aF45
aF0
aF15
aF15
aF0
aF0
aF0
aF0
aF0
aF0
aF0
aF0
aF0
aF5
aF0
aF0
aF0
aF0
aF0
aF0
aF0
aF0
aF0
aF0
aF0
aF5
aF0
aF0
aF0
aF5
aF0
aF0
aF15
aF0
aF0
aF0
aF0
aF0
aF0
aF0
aF0
aF0
aF0
aF0
aF0
aF0
aF0
aF0
aF0
aF0
aF0
aF0
aF0
aF0
aF0
aF5
aF0
aF5
aF0
aF0
aF20
aF0
aF0
aF0
aF0
aF0
aF0
aF0
aF0
aF0
aF15
aF50
aF5
aF0
aF55
aF55
aF225
aF15
aF30
aF30
aF0
aF0
aF55
aF50
aF15
aF35
aF55
aF75
aF30
aF310
aF50
aF15
aF15
aF20
aF0
aF0
aF15
aF15
aF0
aF5
aF0
aF75
aF75
aF15
aF15
aF25
aF75
aF5
aF35
aF25
aF0
aF15
aF0
aF5
aF25
aF25
aF25
aF5
aF15
aF0
aF5
aF0
aF0
aF0
aF0
aF0
aF0
aF0
aF0
aF0
aF0
aF5
aF0
aF20
aF15
aF5
aF0
aF0
aF0
aF0
aF0
aF0
aF5
aF0
aF15
aF20
aF0
aF0
aF0
aF0
aF0
aF0
aF0
aF0
aF20
aF0
aF0
aF0
aF15
aF0
aF15
aF0
aF0
aF0
aF0
aF0
aF0
aF0
aF0
aF0
aF0
aF0
aF0
aF0
aF30
aF30
aF0
aF0
aF0
aF15
aF15
aF0
aF15
aF0
aF0
aF0
aF0
aF0
aF0
aF0
aF0
aF0
aF0
aF0
aF15
aF0
aF0
aF0
aF0
aF0
aF0
aF0
aF0
aF15
aF0
aF15
aF0
aF25
aF0
aF0
aF15
aF0
aF15
aF15
aF0
aF0
aF15
aF0
aF0
aF30
aF0
aF0
aF0
aF0
aF0
aF0
aF5
aF0
aF0
aF5
aF0
aF0
aF30
aF0
aF0
aF0
aF0
aF15
aF30
aF50
aF30
aF50
aF210
aF180
aF255
aF125
aF50
aF5
aF0
aF0
aF50
aF75
aF75
aF105
aF30
aF50
aF50
aF15
aF50
aF15
aF75
aF75
aF105
aF30
aF50
aF15
aF50
aF50
aF105
aF75
aF30
aF40
aF75
aF15
aF50
aF15
aF15
aF0
aF50
aF75
aF50
aF5
aF75
aF75
aF30
aF50
aF50
aF50
aF50
aF50
aF240
aF15
aF15
aF15
aF5
aF0
aF50
aF0
aF50
aF35
aF15
aF5
aF30
aF5
aF15
aF5
aF45
aF35
aF5
aF5
aF50
aF5
aF5
aF25
aF15
aF5
aF15
aF30
aF15
aF15
aF45
aF45
aF45
aF15
aF15
aF0
aF15
aF30
aF15
aF15
aF15
aF45
aF0
aF15
aF15
aF0
aF0
aF0
aF15
aF0
aF0
aF5
aF0
aF0
aF0
aF0
aF0
aF0
aF0
aF0
aF0
aF0
aF0
aF0
aF20
aF0
aF0
aF0
aF0
aF30
aF20
aF0
aF0
aF0
aF0
aF15
aF0
aF0
aF15
aF0
aF0
aF0
aF15
aF0
aF0
aF15
aF0
aF0
aF15
aF0
aF0
aF15
aF210
aF155
aF210
aF210
aF180
aF180
aF120
aF380
aF75
aF15
aF5
aF5
aF0
aF0
aF0
aF0
aF0
aF0
aF0
aF0
aF15
aF15
aF0
aF0
aF0
aF15
aF0
aF0
aF15
aF0
aF0
aF0
aF0
aF0
aF0
aF0
aF15
aF5
aF15
aF0
aF0
aF0
aF0
aF0
aF0
aF0
aF0
aF0
aF0
aF0
aF0
aF20
aF0
aF0
aF15
aF0
aF0
aF0
aF0
aF0
aF20
aF0
aF20
aF0
aF0
aF0
aF20
aF35
aF0
aF0
aF15
aF0
aF0
aF0
aF210
aF180
aF180
aF105
aF75
aF0
aF45
aF150
aF110
aF105
aF130
aF125
aF105
aF180
aF180
aF155
aF105
aF30
aF15
aF0
aF0
aF0
aF0
aF0
aF0
aF0
aF0
aF5
aF5
aF0
aF15
aF5
aF180
aF15
aF45
aF110
aF245
aF210
aF180
aF180
aF210
aF80
aF105
aF155
aF180
aF160
aF180
aF535
aF170
aF250
aF180
aF180
aF230
aF370
aF215
aF115
aF125
aF480
aF200
aF190
aF190
aF160
aF280
aF255
aF170
aF305
aF140
aF370
aF320
aF185
aF110
aF185
aF440
aF110
aF440
aF275
aF490
aF125
aF160
aF295
aF195
aF110
aF160
aF360
aF510
aF730
aF110
aF110
aF80
aF210
aF105
aF140
aF440
aF205
aF160
aF205
aF160
aF195
aF240
aF105
aF195
aF225
aF135
aF120
aF120
aF360
aF80
aF210
aF110
aF210
aF180
aF210
aF105
aF210
aF440
aF135
aF195
aF155
aF275
aF110
aF490
aF120
aF195
aF225
aF510
aF110
aF105
aF185
aF110
aF110
aF210
aF520
aF145
aF110
aF430
aF90
aF220
aF215
aF270
aF80
aF300
aF320
aF120
aF285
aF255
aF230
aF190
aF185
aF180
aF270
aF80
aF95
aF155
aF205
aF155
aF125
aF155
aF155
aF155
aF155
aF155
aF155
aF105
aF160
aF200
aF80
aF245
aF110
aF155
aF330
aF65
aF200
aF105
aF435
aF185
aF110
aF180
aF0
aF0
aF15
aF0
aF0
aF0
aF15
aF0
aF0
aF0
aF20
aF0
aF0
aF20
aF0
aF5
aF15
aF0
aF15
aF0
aF15
aF0
aF0
aF0
aF0
aF0
aF0
aF0
aF0
aF0
aF0
aF15
aF0
aF0
aF0
aF0
aF0
aF0
aF0
aF15
aF0
aF0
aF50
aF15
aF210
aF380
aF180
aF180
aF105
aF155
aF210
aF75
aF0
aF0
aF0
aF0
aF5
aF0
aF0
aF15
aF0
aF0
aF0
aF0
aF80
aF35
aF50
aF0
aF15
aF0
aF0
aF0
aF50
aF95
aF410
aF105
aF105
aF105
aF75
aF0
aF15
aF15
aF105
aF215
aF60
aF0
aF10
aF0
aF0
aF5
aF20
aF0
aF0
aF0
aF0
aF0
aF0
aF75
aF180
aF180
aF260
aF440
aF210
aF105
aF0
aF0
aF0
aF0
aF125
aF175
aF0
aF15
aF25
aF30
aF55
aF180
aF180
aF140
aF185
aF180
aF110
aF65
aF15
aF15
aF0
aF0
aF0
aF0
aF0
aF135
aF200
aF210
aF105
aF15
aF0
aF0
aF0
aF0
aF0
aF15
aF0
aF5
aF15
aF10
aF15
aF5
aF0
aF0
aF15
aF5
aF15
aF0
aF0
aF0
aF0
aF0
aF0
aF0
aF0
aF0
aF0
aF0
aF0
aF0
aF0
aF0
aF20
aF15
aF0
aF0
aF0
aF0
aF45
aF15
aF0
aF0
aF105
aF135
aF50
aF0
aF15
aF0
aF0
aF65
aF0
aF0
aF0
aF0
aF15
aF0
aF15
aF0
aF0
aF0
aF0
aF0
aF0
aF15
aF0
aF0
aF0
aF0
aF5
aF0
aF50
aF180
aF180
aF380
aF110
aF135
aF155
aF180
aF380
aF110
aF180
aF260
aF155
aF105
aF180
aF20
aF30
aF50
aF0
aF50
aF210
aF60
aF15
aF20
aF80
aF50
aF50
aF210
aF105
aF180
aF180
aF180
aF155
aF155
aF180
aF105
aF180
aF75
aF75
aF30
aF30
aF15
aF30
aF35
aF15
aF15
aF15
aF15
aF15
aF45
aF15
aF0
aF15
aF15
aF15
aF15
aF15
aF15
aF50
aF80
aF50
aF30
aF15
aF15
aF15
aF30
aF15
aF15
aF0
aF0
aF90
aF30
aF0
aF20
aF0
aF15
aF0
aF0
aF5
aF10
aF0
aF0
aF0
aF15
aF0
aF0
aF0
aF0
aF15
aF0
aF0
aF15
aF0
aF0
aF0
aF0
aF0
aF0
aF0
aF25
aF15
aF20
aF20
aF35
aF0
aF0
aF0
aF0
aF0
aF25
aF0
aF0
aF0
aF0
aF15
aF0
aF0
aF0
aF15
aF0
aF0
aF0
aF0
aF5
aF0
aF0
aF0
aF105
aF55
aF50
aF5
aF0
aF0
aF0
aF20
aF0
aF5
aF0
aF380
aF355
aF210
aF180
aF135
aF105
aF105
aF210
aF155
aF105
aF100
aF195
aF120
aF210
aF105
aF150
aF30
aF35
aF210
aF35
aF105
aF285
aF0
aF30
aF45
aF15
aF30
aF5
aF0
aF15
aF0
aF0
aF0
aF0
aF15
aF0
aF0
aF0
aF15
aF0
aF0
aF0
aF15
aF0
aF0
aF20
aF35
aF5
aF0
aF0
aF0
aF0
aF5
aF30
aF0
aF0
aF0
aF0
aF30
aF0
aF30
aF15
aF10
aF35
aF5
aF15
aF45
aF15
aF50
aF0
aF0
aF0
aF0
aF15
aF0
aF0
aF15
aF0
aF0
aF0
aF105
aF180
aF180
aF180
aF380
aF180
aF290
aF180
aF210
aF120
aF15
aF0
aF0
aF5
aF5
aF0
aF0
aF0
aF0
aF15
aF0
aF0
aF15
aF0
aF0
aF0
aF5
aF0
aF5
aF0
aF5
aF0
aF5
aF50
aF105
aF210
aF105
aF0
aF0
aF0
aF0
aF15
aF105
aF290
aF180
aF380
aF210
aF110
aF105
aF210
aF25
aF105
aF75
aF30
aF0
aF15
aF0
aF15
aF0
aF30
aF15
aF0
aF0
aF0
aF5
aF80
aF25
aF0
aF0
aF0
aF0
aF15
aF15
aF105
aF50
aF75
aF105
aF185
aF105
aF105
aF315
aF155
aF210
aF180
aF180
aF75
aF0
aF0
aF0
aF0
aF0
aF0
aF0
aF0
aF0
aF0
aF0
aF0
aF0
aF0
aF15
aF15
aF0
aF0
aF0
aF0
aF5
aF0
aF0
aF0
aF0
aF0
aF15
aF0
aF0
aF0
aF0
aF0
aF0
aF0
aF0
aF0
aF15
aF0
aF0
aF0
aF0
aF0
aF0
aF15
aF5
aF0
aF0
aF0
aF0
aF0
aF15
aF0
aF20
aF0
aF5
aF10
aF0
aF0
aF0
aF0
aF5
aF0
aF0
aF0
aF0
aF0
aF15
aF0
aF5
aF0
aF0
aF5
aF0
aF0
aF0
aF0
aF0
aF25
aF0
aF0
aF0
aF0
aF0
aF0
aF0
aF15
aF0
aF80
aF80
aF180
aF210
aF105
aF0
aF0
aF0
aF0
aF0
aF0
aF0
aF30
aF15
aF0
aF0
aF0
aF0
aF0
aF0
aF0
aF15
aF0
aF5
aF0
aF0
aF0
aF0
aF0
aF0
aF0
aF0
aF0
aF0
aF5
aF0
aF0
aF0
aF15
aF0
aF0
aF0
aF15
aF0
aF0
aF80
aF15
aF0
aF0
aF0
aF5
aF0
aF50
aF180
aF180
aF180
aF155
aF155
aF210
aF180
aF180
aF210
aF185
aF110
aF105
aF180
aF180
aF280
aF150
aF210
aF420
aF180
aF210
aF120
aF490
aF110
aF110
aF110
aF105
aF105
aF210
aF110
aF155
aF180
aF210
aF105
aF180
aF105
aF415
aF180
aF180
aF180
aF155
aF165
aF285
aF180
aF110
aF210
aF150
aF255
aF210
aF155
aF150
aF80
aF180
aF105
aF350
aF105
aF30
aF30
aF20
aF15
aF5
aF0
aF50
aF105
aF50
aF105
aF210
aF380
aF50
aF30
aF0
aF0
aF15
aF35
aF0
aF105
aF135
aF120
aF210
aF180
aF150
aF200
aF210
aF15
aF35
aF145
aF90
aF0
aF15
aF5
aF0
aF15
aF0
aF0
aF0
aF0
aF15
aF50
aF75
aF30
aF10
aF0
aF0
aF5
aF125
aF15
aF110
aF95
aF410
aF225
aF0
aF0
aF0
aF30
aF75
aF5
aF5
aF5
aF0
aF0
aF0
aF20
aF45
aF30
aF45
aF15
aF30
aF15
aF0
aF50
aF35
aF55
aF15
aF30
aF30
aF5
aF70
aF135
aF110
aF215
aF240
aF225
aF210
aF210
aF50
aF240
aF725
aF135
aF255
aF470
aF200
aF140
aF45
aF15
aF30
aF15
aF75
aF20
aF35
aF50
aF50
aF75
aF100
aF55
aF210
aF110
aF0
aF0
aF205
aF170
aF305
aF175
aF45
aF40
aF40
aF85
aF65
aF100
aF65
aF55
aF515
aF65
aF115
aF65
aF35
aF100
aF95
aF210
aF75
aF45
aF15
aF5
aF110
aF475
aF30
aF30
aF15
aF50
aF75
aF65
aF115
aF55
aF55
aF35
aF15
aF0
aF0
aF435
aF5
aF0
aF0
aF15
aF115
aF85
aF0
aF0
aF15
aF0
aF0
aF0
aF0
aF0
aF5
aF0
aF15
aF0
aF50
aF75
aF75
aF0
aF15
aF5
aF0
aF0
aF0
aF0
aF0
aF0
aF0
aF25
aF0
aF0
aF0
aF15
aF15
aF5
aF5
aF135
aF260
aF15
aF0
aF30
aF105
aF85
aF85
aF0
aF35
aF0
aF5
aF35
aF5
aF0
aF0
aF0
aF25
aF0
aF0
aF0
aF5
aF0
aF0
aF0
aF0
aF15
aF0
aF0
aF0
aF0
aF0
aF0
aF15
aF0
aF0
aF0
aF0
aF0
aF0
aF0
aF0
aF5
aF0
aF0
aF0
aF0
aF0
aF0
aF0
aF15
aF5
aF0
aF20
aF15
aF0
aF5
aF0
aF0
aF5
aF15
aF0
aF0
aF0
aF0
aF15
aF0
aF0
aF15
aF0
aF0
aF15
aF0
aF15
aF0
aF0
aF15
aF0
aF15
aF75
aF180
aF485
aF180
aF110
aF465
aF435
aF65
aF0
aF0
aF0
aF0
aF0
aF25
aF5
aF0
aF0
aF0
aF0
aF15
aF0
aF0
aF0
aF0
aF0
aF0
aF0
aF0
aF0
aF0
aF0
aF30
aF0
aF0
aF0
aF0
aF0
aF0
aF0
aF0
aF5
aF0
aF0
aF0
aF0
aF15
aF0
aF15
aF0
aF0
aF0
aF0
aF0
aF0
aF0
aF0
aF0
aF15
aF10
aF5
aF0
aF0
aF0
aF0
aF0
aF0
aF0
aF0
aF0
aF0
aF50
aF0
aF0
aF0
aF0
aF0
aF0
aF0
aF15
aF5
aF0
aF0
aF15
aF0
aF0
aF0
aF0
aF15
aF0
aF20
aF0
aF0
aF15
aF0
aF0
aF0
aF0
aF0
aF15
aF0
aF0
aF0
aF0
aF0
aF0
aF0
aF0
aF0
aF0
aF0
aF0
aF15
aF15
aF15
aF0
aF15
aF0
aF0
aF0
aF0
aF30
aF0
aF30
aF0
aF0
aF0
aF0
aF0
aF15
aF0
aF25
aF0
aF5
aF0
aF15
aF0
aF0
aF0
aF0
aF20
aF0
aF0
aF0
aF0
aF0
aF15
aF0
aF0
aF0
aF0
aF0
aF10
aF0
aF0
aF15
aF15
aF30
aF0
aF15
aF5
aF0
aF15
aF0
aF10
aF0
aF0
aF0
aF5
aF0
aF15
aF15
aF0
aF0
aF0
aF15
aF0
aF0
aF0
aF0
aF0
aF15
aF0
aF0
aF15
aF0
aF0
aF5
aF0
aF80
aF335
aF180
aF105
aF75
aF0
aF0
aF15
aF0
aF90
aF75
aF180
aF180
aF150
aF180
aF210
aF105
aF75
aF210
aF180
aF180
aF210
aF210
aF160
aF180
aF210
aF180
aF155
aF210
aF180
aF105
aF210
aF105
aF285
aF460
aF155
aF105
aF180
aF335
aF180
aF420
aF180
aF210
aF110
aF230
aF105
aF180
aF180
aF210
aF135
aF50
aF50
aF0
aF0
aF0
aF50
aF0
aF0
aF0
aF0
aF15
aF0
aF0
aF0
aF0
aF0
aF0
aF15
aF20
aF0
aF0
aF30
aF0
aF0
aF0
aF0
aF0
aF0
aF0
aF0
aF0
aF0
aF0
aF5
aF0
aF5
aF0
aF180
aF180
aF240
aF180
aF195
aF155
aF230
aF50
aF0
aF15
aF30
aF0
aF0
aF0
aF0
aF0
aF0
aF0
aF0
aF0
aF15
aF0
aF15
aF15
aF0
aF5
aF0
aF35
aF0
aF15
aF0
aF5
aF20
aF5
aF0
aF15
aF0
aF0
aF0
aF0
aF0
aF0
aF0
aF0
aF0
aF0
aF0
aF0
aF0
aF0
aF0
aF0
aF0
aF0
aF0
aF0
aF0
aF0
aF5
aF25
aF0
aF0
aF5
aF0
aF0
aF0
aF0
aF0
aF30
aF0
aF80
aF105
aF30
aF105
aF50
aF15
aF30
aF30
aF50
aF0
aF0
aF0
aF0
aF25
aF5
aF0
aF20
aF5
aF0
aF5
aF230
aF30
aF0
aF0
aF0
aF15
aF20
aF0
aF0
aF0
aF5
aF15
aF0
aF0
aF0
aF210
aF30
aF250
aF30
aF30
aF5
aF0
aF30
aF105
aF30
aF250
aF20
aF40
aF30
aF30
aF50
aF0
aF5
aF0
aF15
aF0
aF75
aF105
aF120
aF180
aF105
aF155
aF120
aF180
aF105
aF210
aF105
aF180
aF210
aF135
aF180
aF155
aF180
aF180
aF105
aF135
aF0
aF0
aF180
aF210
aF180
aF210
aF105
aF50
aF75
aF0
aF110
aF290
aF80
aF210
aF155
aF0
aF0
aF0
aF440
aF30
aF0
aF0
aF20
aF0
aF30
aF135
aF80
aF0
aF0
aF0
aF0
aF15
aF105
aF0
aF0
aF170
aF75
aF75
aF0
aF0
aF0
aF0
aF325
aF15
aF0
aF0
aF5
aF0
aF0
aF0
aF15
aF15
aF0
aF0
aF0
aF0
aF0
aF30
aF105
aF105
aF180
aF180
aF180
aF105
aF125
aF240
aF185
aF135
aF210
aF210
aF310
aF235
aF180
aF105
aF105
aF30
aF5
aF0
aF15
aF30
aF5
aF0
aF15
aF0
aF0
aF0
aF0
aF30
aF20
aF15
aF15
aF30
aF65
aF30
aF30
aF50
aF50
aF15
aF15
aF5
aF15
aF5
aF5
aF15
aF65
aF15
aF15
aF30
aF15
aF0
aF15
aF0
aF30
aF0
aF50
aF50
aF20
aF30
aF5
aF50
aF0
aF15
aF55
aF50
aF0
aF15
aF30
aF50
aF50
aF5
aF30
aF0
aF50
aF15
aF15
aF15
aF5
aF5
aF15
aF0
aF30
aF50
aF15
aF15
aF15
aF30
aF0
aF20
aF15
aF15
aF15
aF30
aF30
aF30
aF0
aF45
aF0
aF15
aF15
aF0
aF0
aF15
aF0
aF15
aF30
aF15
aF0
aF0
aF5
aF0
aF15
aF5
aF0
aF0
aF0
aF15
aF0
aF30
aF0
aF200
aF0
aF0
aF0
aF0
aF15
aF0
aF0
aF0
aF0
aF0
aF0
aF0
aF5
aF0
aF15
aF0
aF0
aF15
aF0
aF15
aF0
aF0
aF0
aF0
aF0
aF0
aF0
aF0
aF20
aF30
aF0
aF0
aF0
aF5
aF15
aF15
aF15
aF15
aF30
aF0
aF0
aF0
aF0
aF15
aF15
aF15
aF5
aF0
aF0
aF15
aF5
aF15
aF30
aF30
aF0
aF15
aF0
aF0
aF0
aF15
aF0
aF30
aF0
aF15
aF0
aF15
aF0
aF0
aF15
aF15
aF0
aF15
aF15
aF0
aF5
aF5
aF30
aF0
aF30
aF30
aF30
aF0
aF15
aF15
aF30
aF0
aF0
aF15
aF5
aF15
aF15
aF15
aF5
aF15
aF0
aF30
aF15
aF15
aF0
aF15
aF15
aF15
aF0
aF0
aF15
aF15
aF15
aF15
aF15
aF15
aF15
aF15
aF15
aF15
aF50
aF15
aF15
aF15
aF15
aF30
aF5
aF15
aF15
aF15
aF15
aF15
aF15
aF0
aF15
aF30
aF15
aF15
aF45
aF15
aF20
aF15
aF15
aF5
aF30
aF15
aF15
aF30
aF15
aF0
aF15
aF15
aF15
aF30
aF15
aF15
aF15
aF15
aF15
aF15
aF15
aF15
aF15
aF15
aF15
aF15
aF0
aF30
aF15
aF15
aF30
aF15
aF45
aF15
aF15
aF15
aF30
aF15
aF30
aF50
aF15
aF30
aF15
aF15
aF15
aF35
aF15
aF15
aF15
aF80
aF155
aF70
aF30
aF15
aF15
aF50
aF210
aF355
aF45
aF75
aF15
aF50
aF50
aF90
aF15
aF75
aF50
aF75
aF80
aF50
aF60
aF50
aF105
aF50
aF15
aF135
aF75
aF50
aF15
aF15
aF15
aF15
aF105
aF50
aF50
aF105
aF15
aF210
aF135
aF180
aF180
aF210
aF110
aF180
aF110
aF105
aF105
aF155
aF105
aF355
aF210
aF260
aF130
aF135
aF105
aF180
aF180
aF105
aF245
aF80
aF135
aF135
aF180
aF105
aF0
aF0
aF75
aF135
aF180
aF135
aF110
aF90
aF180
aF385
aF120
aF110
aF50
aF105
aF180
aF300
aF105
aF75
aF35
aF0
aF0
aF0
aF0
aF0
aF0
aF0
aF0
aF0
aF0
aF0
aF15
aF0
aF0
aF0
aF0
aF5
aF0
aF0
aF0
aF0
aF200
aF0
aF15
aF0
aF0
aF0
aF35
aF0
aF0
aF0
aF0
aF0
aF0
aF0
aF15
aF0
aF5
aF15
aF15
aF0
aF5
aF35
aF0
aF0
aF15
aF0
aF0
aF0
aF0
aF0
aF0
aF0
aF15
aF0
aF0
aF15
aF0
aF0
aF0
aF0
aF0
aF0
aF15
aF0
aF5
aF0
aF5
aF0
aF0
aF0
aF0
aF15
aF0
aF0
aF0
aF0
aF0
aF5
aF0
aF0
aF0
aF0
aF0
aF0
aF0
aF35
aF5
aF0
aF0
aF0
aF0
aF0
aF0
aF20
aF15
aF0
aF0
aF0
aF0
aF15
aF0
aF0
aF0
aF5
aF0
aF0
aF0
aF0
aF0
aF15
aF0
aF0
aF0
aF0
aF0
aF0
aF0
aF5
aF0
aF0
aF0
aF0
aF0
aF0
aF30
aF15
aF0
aF0
aF0
aF15
aF15
aF0
aF0
aF0
aF0
aF5
aF0
aF0
aF0
aF0
aF0
aF0
aF0
aF15
aF0
aF0
aF0
aF0
aF0
aF0
aF0
aF0
aF0
aF0
aF0
aF0
aF0
aF0
aF0
aF0
aF15
aF15
aF0
aF0
aF0
aF0
aF0
aF0
aF0
aF0
aF25
aF0
aF15
aF0
aF0
aF0
aF0
aF15
aF0
aF0
aF0
aF0
aF0
aF15
aF0
aF0
aF0
aF20
aF0
aF15
aF0
aF0
aF0
aF0
aF0
aF0
aF0
aF0
aF0
aF0
aF0
aF0
aF0
aF0
aF0
aF0
aF30
aF15
aF35
aF15
aF0
aF15
aF0
aF0
aF0
aF0
aF0
aF0
aF0
aF0
aF0
aF0
aF0
aF0
aF5
aF15
aF0
aF0
aF0
aF0
aF0
aF0
aF5
aF0
aF0
aF15
aF0
aF0
aF15
aF15
aF0
aF5
aF50
aF60
aF0
aF0
aF0
aF15
aF15
aF0
aF0
aF0
aF0
aF0
aF0
aF5
aF15
aF0
aF15
aF0
aF0
aF0
aF0
aF0
aF0
aF0
aF0
aF15
aF0
aF0
aF0
aF15
aF5
aF0
aF5
aF5
aF0
aF30
aF0
aF15
aF0
aF15
aF0
aF0
aF0
aF15
aF0
aF0
aF30
aF0
aF35
aF0
aF5
aF0
aF0
aF0
aF0
aF0
aF0
aF0
aF15
aF15
aF0
aF0
aF0
aF0
aF0
aF0
aF0
aF15
aF0
aF0
aF0
aF0
aF0
aF0
aF0
aF0
aF0
aF0
aF0
aF0
aF15
aF0
aF0
aF0
aF0
aF0
aF0
aF15
aF5
aF0
aF0
aF0
aF0
aF0
asS'episode'
p6
(lp7
I6000
aI6001
aI6002
aI6003
aI6004
aI6005
aI6006
aI6007
aI6008
aI6009
aI6010
aI6011
aI6012
aI6013
aI6014
aI6015
aI6016
aI6017
aI6018
aI6019
aI6020
aI6021
aI6022
aI6023
aI6024
aI6025
aI6026
aI6027
aI6028
aI6029
aI6030
aI6031
aI6032
aI6033
aI6034
aI6035
aI6036
aI6037
aI6038
aI6039
aI6040
aI6041
aI6042
aI6043
aI6044
aI6045
aI6046
aI6047
aI6048
aI6049
aI6050
aI6051
aI6052
aI6053
aI6054
aI6055
aI6056
aI6057
aI6058
aI6059
aI6060
aI6061
aI6062
aI6063
aI6064
aI6065
aI6066
aI6067
aI6068
aI6069
aI6070
aI6071
aI6072
aI6073
aI6074
aI6075
aI6076
aI6077
aI6078
aI6079
aI6080
aI6081
aI6082
aI6083
aI6084
aI6085
aI6086
aI6087
aI6088
aI6089
aI6090
aI6091
aI6092
aI6093
aI6094
aI6095
aI6096
aI6097
aI6098
aI6099
aI6100
aI6101
aI6102
aI6103
aI6104
aI6105
aI6106
aI6107
aI6108
aI6109
aI6110
aI6111
aI6112
aI6113
aI6114
aI6115
aI6116
aI6117
aI6118
aI6119
aI6120
aI6121
aI6122
aI6123
aI6124
aI6125
aI6126
aI6127
aI6128
aI6129
aI6130
aI6131
aI6132
aI6133
aI6134
aI6135
aI6136
aI6137
aI6138
aI6139
aI6140
aI6141
aI6142
aI6143
aI6144
aI6145
aI6146
aI6147
aI6148
aI6149
aI6150
aI6151
aI6152
aI6153
aI6154
aI6155
aI6156
aI6157
aI6158
aI6159
aI6160
aI6161
aI6162
aI6163
aI6164
aI6165
aI6166
aI6167
aI6168
aI6169
aI6170
aI6171
aI6172
aI6173
aI6174
aI6175
aI6176
aI6177
aI6178
aI6179
aI6180
aI6181
aI6182
aI6183
aI6184
aI6185
aI6186
aI6187
aI6188
aI6189
aI6190
aI6191
aI6192
aI6193
aI6194
aI6195
aI6196
aI6197
aI6198
aI6199
aI6200
aI6201
aI6202
aI6203
aI6204
aI6205
aI6206
aI6207
aI6208
aI6209
aI6210
aI6211
aI6212
aI6213
aI6214
aI6215
aI6216
aI6217
aI6218
aI6219
aI6220
aI6221
aI6222
aI6223
aI6224
aI6225
aI6226
aI6227
aI6228
aI6229
aI6230
aI6231
aI6232
aI6233
aI6234
aI6235
aI6236
aI6237
aI6238
aI6239
aI6240
aI6241
aI6242
aI6243
aI6244
aI6245
aI6246
aI6247
aI6248
aI6249
aI6250
aI6251
aI6252
aI6253
aI6254
aI6255
aI6256
aI6257
aI6258
aI6259
aI6260
aI6261
aI6262
aI6263
aI6264
aI6265
aI6266
aI6267
aI6268
aI6269
aI6270
aI6271
aI6272
aI6273
aI6274
aI6275
aI6276
aI6277
aI6278
aI6279
aI6280
aI6281
aI6282
aI6283
aI6284
aI6285
aI6286
aI6287
aI6288
aI6289
aI6290
aI6291
aI6292
aI6293
aI6294
aI6295
aI6296
aI6297
aI6298
aI6299
aI6300
aI6301
aI6302
aI6303
aI6304
aI6305
aI6306
aI6307
aI6308
aI6309
aI6310
aI6311
aI6312
aI6313
aI6314
aI6315
aI6316
aI6317
aI6318
aI6319
aI6320
aI6321
aI6322
aI6323
aI6324
aI6325
aI6326
aI6327
aI6328
aI6329
aI6330
aI6331
aI6332
aI6333
aI6334
aI6335
aI6336
aI6337
aI6338
aI6339
aI6340
aI6341
aI6342
aI6343
aI6344
aI6345
aI6346
aI6347
aI6348
aI6349
aI6350
aI6351
aI6352
aI6353
aI6354
aI6355
aI6356
aI6357
aI6358
aI6359
aI6360
aI6361
aI6362
aI6363
aI6364
aI6365
aI6366
aI6367
aI6368
aI6369
aI6370
aI6371
aI6372
aI6373
aI6374
aI6375
aI6376
aI6377
aI6378
aI6379
aI6380
aI6381
aI6382
aI6383
aI6384
aI6385
aI6386
aI6387
aI6388
aI6389
aI6390
aI6391
aI6392
aI6393
aI6394
aI6395
aI6396
aI6397
aI6398
aI6399
aI6400
aI6401
aI6402
aI6403
aI6404
aI6405
aI6406
aI6407
aI6408
aI6409
aI6410
aI6411
aI6412
aI6413
aI6414
aI6415
aI6416
aI6417
aI6418
aI6419
aI6420
aI6421
aI6422
aI6423
aI6424
aI6425
aI6426
aI6427
aI6428
aI6429
aI6430
aI6431
aI6432
aI6433
aI6434
aI6435
aI6436
aI6437
aI6438
aI6439
aI6440
aI6441
aI6442
aI6443
aI6444
aI6445
aI6446
aI6447
aI6448
aI6449
aI6450
aI6451
aI6452
aI6453
aI6454
aI6455
aI6456
aI6457
aI6458
aI6459
aI6460
aI6461
aI6462
aI6463
aI6464
aI6465
aI6466
aI6467
aI6468
aI6469
aI6470
aI6471
aI6472
aI6473
aI6474
aI6475
aI6476
aI6477
aI6478
aI6479
aI6480
aI6481
aI6482
aI6483
aI6484
aI6485
aI6486
aI6487
aI6488
aI6489
aI6490
aI6491
aI6492
aI6493
aI6494
aI6495
aI6496
aI6497
aI6498
aI6499
aI6500
aI6501
aI6502
aI6503
aI6504
aI6505
aI6506
aI6507
aI6508
aI6509
aI6510
aI6511
aI6512
aI6513
aI6514
aI6515
aI6516
aI6517
aI6518
aI6519
aI6520
aI6521
aI6522
aI6523
aI6524
aI6525
aI6526
aI6527
aI6528
aI6529
aI6530
aI6531
aI6532
aI6533
aI6534
aI6535
aI6536
aI6537
aI6538
aI6539
aI6540
aI6541
aI6542
aI6543
aI6544
aI6545
aI6546
aI6547
aI6548
aI6549
aI6550
aI6551
aI6552
aI6553
aI6554
aI6555
aI6556
aI6557
aI6558
aI6559
aI6560
aI6561
aI6562
aI6563
aI6564
aI6565
aI6566
aI6567
aI6568
aI6569
aI6570
aI6571
aI6572
aI6573
aI6574
aI6575
aI6576
aI6577
aI6578
aI6579
aI6580
aI6581
aI6582
aI6583
aI6584
aI6585
aI6586
aI6587
aI6588
aI6589
aI6590
aI6591
aI6592
aI6593
aI6594
aI6595
aI6596
aI6597
aI6598
aI6599
aI6600
aI6601
aI6602
aI6603
aI6604
aI6605
aI6606
aI6607
aI6608
aI6609
aI6610
aI6611
aI6612
aI6613
aI6614
aI6615
aI6616
aI6617
aI6618
aI6619
aI6620
aI6621
aI6622
aI6623
aI6624
aI6625
aI6626
aI6627
aI6628
aI6629
aI6630
aI6631
aI6632
aI6633
aI6634
aI6635
aI6636
aI6637
aI6638
aI6639
aI6640
aI6641
aI6642
aI6643
aI6644
aI6645
aI6646
aI6647
aI6648
aI6649
aI6650
aI6651
aI6652
aI6653
aI6654
aI6655
aI6656
aI6657
aI6658
aI6659
aI6660
aI6661
aI6662
aI6663
aI6664
aI6665
aI6666
aI6667
aI6668
aI6669
aI6670
aI6671
aI6672
aI6673
aI6674
aI6675
aI6676
aI6677
aI6678
aI6679
aI6680
aI6681
aI6682
aI6683
aI6684
aI6685
aI6686
aI6687
aI6688
aI6689
aI6690
aI6691
aI6692
aI6693
aI6694
aI6695
aI6696
aI6697
aI6698
aI6699
aI6700
aI6701
aI6702
aI6703
aI6704
aI6705
aI6706
aI6707
aI6708
aI6709
aI6710
aI6711
aI6712
aI6713
aI6714
aI6715
aI6716
aI6717
aI6718
aI6719
aI6720
aI6721
aI6722
aI6723
aI6724
aI6725
aI6726
aI6727
aI6728
aI6729
aI6730
aI6731
aI6732
aI6733
aI6734
aI6735
aI6736
aI6737
aI6738
aI6739
aI6740
aI6741
aI6742
aI6743
aI6744
aI6745
aI6746
aI6747
aI6748
aI6749
aI6750
aI6751
aI6752
aI6753
aI6754
aI6755
aI6756
aI6757
aI6758
aI6759
aI6760
aI6761
aI6762
aI6763
aI6764
aI6765
aI6766
aI6767
aI6768
aI6769
aI6770
aI6771
aI6772
aI6773
aI6774
aI6775
aI6776
aI6777
aI6778
aI6779
aI6780
aI6781
aI6782
aI6783
aI6784
aI6785
aI6786
aI6787
aI6788
aI6789
aI6790
aI6791
aI6792
aI6793
aI6794
aI6795
aI6796
aI6797
aI6798
aI6799
aI6800
aI6801
aI6802
aI6803
aI6804
aI6805
aI6806
aI6807
aI6808
aI6809
aI6810
aI6811
aI6812
aI6813
aI6814
aI6815
aI6816
aI6817
aI6818
aI6819
aI6820
aI6821
aI6822
aI6823
aI6824
aI6825
aI6826
aI6827
aI6828
aI6829
aI6830
aI6831
aI6832
aI6833
aI6834
aI6835
aI6836
aI6837
aI6838
aI6839
aI6840
aI6841
aI6842
aI6843
aI6844
aI6845
aI6846
aI6847
aI6848
aI6849
aI6850
aI6851
aI6852
aI6853
aI6854
aI6855
aI6856
aI6857
aI6858
aI6859
aI6860
aI6861
aI6862
aI6863
aI6864
aI6865
aI6866
aI6867
aI6868
aI6869
aI6870
aI6871
aI6872
aI6873
aI6874
aI6875
aI6876
aI6877
aI6878
aI6879
aI6880
aI6881
aI6882
aI6883
aI6884
aI6885
aI6886
aI6887
aI6888
aI6889
aI6890
aI6891
aI6892
aI6893
aI6894
aI6895
aI6896
aI6897
aI6898
aI6899
aI6900
aI6901
aI6902
aI6903
aI6904
aI6905
aI6906
aI6907
aI6908
aI6909
aI6910
aI6911
aI6912
aI6913
aI6914
aI6915
aI6916
aI6917
aI6918
aI6919
aI6920
aI6921
aI6922
aI6923
aI6924
aI6925
aI6926
aI6927
aI6928
aI6929
aI6930
aI6931
aI6932
aI6933
aI6934
aI6935
aI6936
aI6937
aI6938
aI6939
aI6940
aI6941
aI6942
aI6943
aI6944
aI6945
aI6946
aI6947
aI6948
aI6949
aI6950
aI6951
aI6952
aI6953
aI6954
aI6955
aI6956
aI6957
aI6958
aI6959
aI6960
aI6961
aI6962
aI6963
aI6964
aI6965
aI6966
aI6967
aI6968
aI6969
aI6970
aI6971
aI6972
aI6973
aI6974
aI6975
aI6976
aI6977
aI6978
aI6979
aI6980
aI6981
aI6982
aI6983
aI6984
aI6985
aI6986
aI6987
aI6988
aI6989
aI6990
aI6991
aI6992
aI6993
aI6994
aI6995
aI6996
aI6997
aI6998
aI6999
aI7000
aI7001
aI7002
aI7003
aI7004
aI7005
aI7006
aI7007
aI7008
aI7009
aI7010
aI7011
aI7012
aI7013
aI7014
aI7015
aI7016
aI7017
aI7018
aI7019
aI7020
aI7021
aI7022
aI7023
aI7024
aI7025
aI7026
aI7027
aI7028
aI7029
aI7030
aI7031
aI7032
aI7033
aI7034
aI7035
aI7036
aI7037
aI7038
aI7039
aI7040
aI7041
aI7042
aI7043
aI7044
aI7045
aI7046
aI7047
aI7048
aI7049
aI7050
aI7051
aI7052
aI7053
aI7054
aI7055
aI7056
aI7057
aI7058
aI7059
aI7060
aI7061
aI7062
aI7063
aI7064
aI7065
aI7066
aI7067
aI7068
aI7069
aI7070
aI7071
aI7072
aI7073
aI7074
aI7075
aI7076
aI7077
aI7078
aI7079
aI7080
aI7081
aI7082
aI7083
aI7084
aI7085
aI7086
aI7087
aI7088
aI7089
aI7090
aI7091
aI7092
aI7093
aI7094
aI7095
aI7096
aI7097
aI7098
aI7099
aI7100
aI7101
aI7102
aI7103
aI7104
aI7105
aI7106
aI7107
aI7108
aI7109
aI7110
aI7111
aI7112
aI7113
aI7114
aI7115
aI7116
aI7117
aI7118
aI7119
aI7120
aI7121
aI7122
aI7123
aI7124
aI7125
aI7126
aI7127
aI7128
aI7129
aI7130
aI7131
aI7132
aI7133
aI7134
aI7135
aI7136
aI7137
aI7138
aI7139
aI7140
aI7141
aI7142
aI7143
aI7144
aI7145
aI7146
aI7147
aI7148
aI7149
aI7150
aI7151
aI7152
aI7153
aI7154
aI7155
aI7156
aI7157
aI7158
aI7159
aI7160
aI7161
aI7162
aI7163
aI7164
aI7165
aI7166
aI7167
aI7168
aI7169
aI7170
aI7171
aI7172
aI7173
aI7174
aI7175
aI7176
aI7177
aI7178
aI7179
aI7180
aI7181
aI7182
aI7183
aI7184
aI7185
aI7186
aI7187
aI7188
aI7189
aI7190
aI7191
aI7192
aI7193
aI7194
aI7195
aI7196
aI7197
aI7198
aI7199
aI7200
aI7201
aI7202
aI7203
aI7204
aI7205
aI7206
aI7207
aI7208
aI7209
aI7210
aI7211
aI7212
aI7213
aI7214
aI7215
aI7216
aI7217
aI7218
aI7219
aI7220
aI7221
aI7222
aI7223
aI7224
aI7225
aI7226
aI7227
aI7228
aI7229
aI7230
aI7231
aI7232
aI7233
aI7234
aI7235
aI7236
aI7237
aI7238
aI7239
aI7240
aI7241
aI7242
aI7243
aI7244
aI7245
aI7246
aI7247
aI7248
aI7249
aI7250
aI7251
aI7252
aI7253
aI7254
aI7255
aI7256
aI7257
aI7258
aI7259
aI7260
aI7261
aI7262
aI7263
aI7264
aI7265
aI7266
aI7267
aI7268
aI7269
aI7270
aI7271
aI7272
aI7273
aI7274
aI7275
aI7276
aI7277
aI7278
aI7279
aI7280
aI7281
aI7282
aI7283
aI7284
aI7285
aI7286
aI7287
aI7288
aI7289
aI7290
aI7291
aI7292
aI7293
aI7294
aI7295
aI7296
aI7297
aI7298
aI7299
aI7300
aI7301
aI7302
aI7303
aI7304
aI7305
aI7306
aI7307
aI7308
aI7309
aI7310
aI7311
aI7312
aI7313
aI7314
aI7315
aI7316
aI7317
aI7318
aI7319
aI7320
aI7321
aI7322
aI7323
aI7324
aI7325
aI7326
aI7327
aI7328
aI7329
aI7330
aI7331
aI7332
aI7333
aI7334
aI7335
aI7336
aI7337
aI7338
aI7339
aI7340
aI7341
aI7342
aI7343
aI7344
aI7345
aI7346
aI7347
aI7348
aI7349
aI7350
aI7351
aI7352
aI7353
aI7354
aI7355
aI7356
aI7357
aI7358
aI7359
aI7360
aI7361
aI7362
aI7363
aI7364
aI7365
aI7366
aI7367
aI7368
aI7369
aI7370
aI7371
aI7372
aI7373
aI7374
aI7375
aI7376
aI7377
aI7378
aI7379
aI7380
aI7381
aI7382
aI7383
aI7384
aI7385
aI7386
aI7387
aI7388
aI7389
aI7390
aI7391
aI7392
aI7393
aI7394
aI7395
aI7396
aI7397
aI7398
aI7399
aI7400
aI7401
aI7402
aI7403
aI7404
aI7405
aI7406
aI7407
aI7408
aI7409
aI7410
aI7411
aI7412
aI7413
aI7414
aI7415
aI7416
aI7417
aI7418
aI7419
aI7420
aI7421
aI7422
aI7423
aI7424
aI7425
aI7426
aI7427
aI7428
aI7429
aI7430
aI7431
aI7432
aI7433
aI7434
aI7435
aI7436
aI7437
aI7438
aI7439
aI7440
aI7441
aI7442
aI7443
aI7444
aI7445
aI7446
aI7447
aI7448
aI7449
aI7450
aI7451
aI7452
aI7453
aI7454
aI7455
aI7456
aI7457
aI7458
aI7459
aI7460
aI7461
aI7462
aI7463
aI7464
aI7465
aI7466
aI7467
aI7468
aI7469
aI7470
aI7471
aI7472
aI7473
aI7474
aI7475
aI7476
aI7477
aI7478
aI7479
aI7480
aI7481
aI7482
aI7483
aI7484
aI7485
aI7486
aI7487
aI7488
aI7489
aI7490
aI7491
aI7492
aI7493
aI7494
aI7495
aI7496
aI7497
aI7498
aI7499
aI7500
aI7501
aI7502
aI7503
aI7504
aI7505
aI7506
aI7507
aI7508
aI7509
aI7510
aI7511
aI7512
aI7513
aI7514
aI7515
aI7516
aI7517
aI7518
aI7519
aI7520
aI7521
aI7522
aI7523
aI7524
aI7525
aI7526
aI7527
aI7528
aI7529
aI7530
aI7531
aI7532
aI7533
aI7534
aI7535
aI7536
aI7537
aI7538
aI7539
aI7540
aI7541
aI7542
aI7543
aI7544
aI7545
aI7546
aI7547
aI7548
aI7549
aI7550
aI7551
aI7552
aI7553
aI7554
aI7555
aI7556
aI7557
aI7558
aI7559
aI7560
aI7561
aI7562
aI7563
aI7564
aI7565
aI7566
aI7567
aI7568
aI7569
aI7570
aI7571
aI7572
aI7573
aI7574
aI7575
aI7576
aI7577
aI7578
aI7579
aI7580
aI7581
aI7582
aI7583
aI7584
aI7585
aI7586
aI7587
aI7588
aI7589
aI7590
aI7591
aI7592
aI7593
aI7594
aI7595
aI7596
aI7597
aI7598
aI7599
aI7600
aI7601
aI7602
aI7603
aI7604
aI7605
aI7606
aI7607
aI7608
aI7609
aI7610
aI7611
aI7612
aI7613
aI7614
aI7615
aI7616
aI7617
aI7618
aI7619
aI7620
aI7621
aI7622
aI7623
aI7624
aI7625
aI7626
aI7627
aI7628
aI7629
aI7630
aI7631
aI7632
aI7633
aI7634
aI7635
aI7636
aI7637
aI7638
aI7639
aI7640
aI7641
aI7642
aI7643
aI7644
aI7645
aI7646
aI7647
aI7648
aI7649
aI7650
aI7651
aI7652
aI7653
aI7654
aI7655
aI7656
aI7657
aI7658
aI7659
aI7660
aI7661
aI7662
aI7663
aI7664
aI7665
aI7666
aI7667
aI7668
aI7669
aI7670
aI7671
aI7672
aI7673
aI7674
aI7675
aI7676
aI7677
aI7678
aI7679
aI7680
aI7681
aI7682
aI7683
aI7684
aI7685
aI7686
aI7687
aI7688
aI7689
aI7690
aI7691
aI7692
aI7693
aI7694
aI7695
aI7696
aI7697
aI7698
aI7699
aI7700
aI7701
aI7702
aI7703
aI7704
aI7705
aI7706
aI7707
aI7708
aI7709
aI7710
aI7711
aI7712
aI7713
aI7714
aI7715
aI7716
aI7717
aI7718
aI7719
aI7720
aI7721
aI7722
aI7723
aI7724
aI7725
aI7726
aI7727
aI7728
aI7729
aI7730
aI7731
aI7732
aI7733
aI7734
aI7735
aI7736
aI7737
aI7738
aI7739
aI7740
aI7741
aI7742
aI7743
aI7744
aI7745
aI7746
aI7747
aI7748
aI7749
aI7750
aI7751
aI7752
aI7753
aI7754
aI7755
aI7756
aI7757
aI7758
aI7759
aI7760
aI7761
aI7762
aI7763
aI7764
aI7765
aI7766
aI7767
aI7768
aI7769
aI7770
aI7771
aI7772
aI7773
aI7774
aI7775
aI7776
aI7777
aI7778
aI7779
aI7780
aI7781
aI7782
aI7783
aI7784
aI7785
aI7786
aI7787
aI7788
aI7789
aI7790
aI7791
aI7792
aI7793
aI7794
aI7795
aI7796
aI7797
aI7798
aI7799
aI7800
aI7801
aI7802
aI7803
aI7804
aI7805
aI7806
aI7807
aI7808
aI7809
aI7810
aI7811
aI7812
aI7813
aI7814
aI7815
aI7816
aI7817
aI7818
aI7819
aI7820
aI7821
aI7822
aI7823
aI7824
aI7825
aI7826
aI7827
aI7828
aI7829
aI7830
aI7831
aI7832
aI7833
aI7834
aI7835
aI7836
aI7837
aI7838
aI7839
aI7840
aI7841
aI7842
aI7843
aI7844
aI7845
aI7846
aI7847
aI7848
aI7849
aI7850
aI7851
aI7852
aI7853
aI7854
aI7855
aI7856
aI7857
aI7858
aI7859
aI7860
aI7861
aI7862
aI7863
aI7864
aI7865
aI7866
aI7867
aI7868
aI7869
aI7870
aI7871
aI7872
aI7873
aI7874
aI7875
aI7876
aI7877
aI7878
aI7879
aI7880
aI7881
aI7882
aI7883
aI7884
aI7885
aI7886
aI7887
aI7888
aI7889
aI7890
aI7891
aI7892
aI7893
aI7894
aI7895
aI7896
aI7897
aI7898
aI7899
aI7900
aI7901
aI7902
aI7903
aI7904
aI7905
aI7906
aI7907
aI7908
aI7909
aI7910
aI7911
aI7912
aI7913
aI7914
aI7915
aI7916
aI7917
aI7918
aI7919
aI7920
aI7921
aI7922
aI7923
aI7924
aI7925
aI7926
aI7927
aI7928
aI7929
aI7930
aI7931
aI7932
aI7933
aI7934
aI7935
aI7936
aI7937
aI7938
aI7939
aI7940
aI7941
aI7942
aI7943
aI7944
aI7945
aI7946
aI7947
aI7948
aI7949
aI7950
aI7951
aI7952
aI7953
aI7954
aI7955
aI7956
aI7957
aI7958
aI7959
aI7960
aI7961
aI7962
aI7963
aI7964
aI7965
aI7966
aI7967
aI7968
aI7969
aI7970
aI7971
aI7972
aI7973
aI7974
aI7975
aI7976
aI7977
aI7978
aI7979
aI7980
aI7981
aI7982
aI7983
aI7984
aI7985
aI7986
aI7987
aI7988
aI7989
aI7990
aI7991
aI7992
aI7993
aI7994
aI7995
aI7996
aI7997
aI7998
aI7999
aI8000
aI8001
aI8002
aI8003
aI8004
aI8005
aI8006
aI8007
aI8008
aI8009
aI8010
aI8011
aI8012
aI8013
aI8014
aI8015
aI8016
aI8017
aI8018
aI8019
aI8020
aI8021
aI8022
aI8023
aI8024
aI8025
aI8026
aI8027
aI8028
aI8029
aI8030
aI8031
aI8032
aI8033
aI8034
aI8035
aI8036
aI8037
aI8038
aI8039
aI8040
aI8041
aI8042
aI8043
aI8044
aI8045
aI8046
aI8047
aI8048
aI8049
aI8050
aI8051
aI8052
aI8053
aI8054
aI8055
aI8056
aI8057
aI8058
aI8059
aI8060
aI8061
aI8062
aI8063
aI8064
aI8065
aI8066
aI8067
aI8068
aI8069
aI8070
aI8071
aI8072
aI8073
aI8074
aI8075
aI8076
aI8077
aI8078
aI8079
aI8080
aI8081
aI8082
aI8083
aI8084
aI8085
aI8086
aI8087
aI8088
aI8089
aI8090
aI8091
aI8092
aI8093
aI8094
aI8095
aI8096
aI8097
aI8098
aI8099
aI8100
aI8101
aI8102
aI8103
aI8104
aI8105
aI8106
aI8107
aI8108
aI8109
aI8110
aI8111
aI8112
aI8113
aI8114
aI8115
aI8116
aI8117
aI8118
aI8119
aI8120
aI8121
aI8122
aI8123
aI8124
aI8125
aI8126
aI8127
aI8128
aI8129
aI8130
aI8131
aI8132
aI8133
aI8134
aI8135
aI8136
aI8137
aI8138
aI8139
aI8140
aI8141
aI8142
aI8143
aI8144
aI8145
aI8146
aI8147
aI8148
aI8149
aI8150
aI8151
aI8152
aI8153
aI8154
aI8155
aI8156
aI8157
aI8158
aI8159
aI8160
aI8161
aI8162
aI8163
aI8164
aI8165
aI8166
aI8167
aI8168
aI8169
aI8170
aI8171
aI8172
aI8173
aI8174
aI8175
aI8176
aI8177
aI8178
aI8179
aI8180
aI8181
aI8182
aI8183
aI8184
aI8185
aI8186
aI8187
aI8188
aI8189
aI8190
aI8191
aI8192
aI8193
aI8194
aI8195
aI8196
aI8197
aI8198
aI8199
aI8200
aI8201
aI8202
aI8203
aI8204
aI8205
aI8206
aI8207
aI8208
aI8209
aI8210
aI8211
aI8212
aI8213
aI8214
aI8215
aI8216
aI8217
aI8218
aI8219
aI8220
aI8221
aI8222
aI8223
aI8224
aI8225
aI8226
aI8227
aI8228
aI8229
aI8230
aI8231
aI8232
aI8233
aI8234
aI8235
aI8236
aI8237
aI8238
aI8239
aI8240
aI8241
aI8242
aI8243
aI8244
aI8245
aI8246
aI8247
aI8248
aI8249
aI8250
aI8251
aI8252
aI8253
aI8254
aI8255
aI8256
aI8257
aI8258
aI8259
aI8260
aI8261
aI8262
aI8263
aI8264
aI8265
aI8266
aI8267
aI8268
aI8269
aI8270
aI8271
aI8272
aI8273
aI8274
aI8275
aI8276
aI8277
aI8278
aI8279
aI8280
aI8281
aI8282
aI8283
aI8284
aI8285
aI8286
aI8287
aI8288
aI8289
aI8290
aI8291
aI8292
aI8293
aI8294
aI8295
aI8296
aI8297
aI8298
aI8299
aI8300
aI8301
aI8302
aI8303
aI8304
aI8305
aI8306
aI8307
aI8308
aI8309
aI8310
aI8311
aI8312
aI8313
aI8314
aI8315
aI8316
aI8317
aI8318
aI8319
aI8320
aI8321
aI8322
aI8323
aI8324
aI8325
aI8326
aI8327
aI8328
aI8329
aI8330
aI8331
aI8332
aI8333
aI8334
aI8335
aI8336
aI8337
aI8338
aI8339
aI8340
aI8341
aI8342
aI8343
aI8344
aI8345
aI8346
aI8347
aI8348
aI8349
aI8350
aI8351
aI8352
aI8353
aI8354
aI8355
aI8356
aI8357
aI8358
aI8359
aI8360
aI8361
aI8362
aI8363
aI8364
aI8365
aI8366
aI8367
aI8368
aI8369
aI8370
aI8371
aI8372
aI8373
aI8374
aI8375
aI8376
aI8377
aI8378
aI8379
aI8380
aI8381
aI8382
aI8383
aI8384
aI8385
aI8386
aI8387
aI8388
aI8389
aI8390
aI8391
aI8392
aI8393
aI8394
aI8395
aI8396
aI8397
aI8398
aI8399
aI8400
aI8401
aI8402
aI8403
aI8404
aI8405
aI8406
aI8407
aI8408
aI8409
aI8410
aI8411
aI8412
aI8413
aI8414
aI8415
aI8416
aI8417
aI8418
aI8419
aI8420
aI8421
aI8422
aI8423
aI8424
aI8425
aI8426
aI8427
aI8428
aI8429
aI8430
aI8431
aI8432
aI8433
aI8434
aI8435
aI8436
aI8437
aI8438
aI8439
aI8440
aI8441
aI8442
aI8443
aI8444
aI8445
aI8446
aI8447
aI8448
aI8449
aI8450
aI8451
aI8452
aI8453
aI8454
aI8455
aI8456
aI8457
aI8458
aI8459
aI8460
aI8461
aI8462
aI8463
aI8464
aI8465
aI8466
aI8467
aI8468
aI8469
aI8470
aI8471
aI8472
aI8473
aI8474
aI8475
aI8476
aI8477
aI8478
aI8479
aI8480
aI8481
aI8482
aI8483
aI8484
aI8485
aI8486
aI8487
aI8488
aI8489
aI8490
aI8491
aI8492
aI8493
aI8494
aI8495
aI8496
aI8497
aI8498
aI8499
aI8500
aI8501
aI8502
aI8503
aI8504
aI8505
aI8506
aI8507
aI8508
aI8509
aI8510
aI8511
aI8512
aI8513
aI8514
aI8515
aI8516
aI8517
aI8518
aI8519
aI8520
aI8521
aI8522
aI8523
aI8524
aI8525
aI8526
aI8527
aI8528
aI8529
aI8530
aI8531
aI8532
aI8533
aI8534
aI8535
aI8536
aI8537
aI8538
aI8539
aI8540
aI8541
aI8542
aI8543
aI8544
aI8545
aI8546
aI8547
aI8548
aI8549
aI8550
aI8551
aI8552
aI8553
aI8554
aI8555
aI8556
aI8557
aI8558
aI8559
aI8560
aI8561
aI8562
aI8563
aI8564
aI8565
aI8566
aI8567
aI8568
aI8569
aI8570
aI8571
aI8572
aI8573
aI8574
aI8575
aI8576
aI8577
aI8578
aI8579
aI8580
aI8581
aI8582
aI8583
aI8584
aI8585
aI8586
aI8587
aI8588
aI8589
aI8590
aI8591
aI8592
aI8593
aI8594
aI8595
aI8596
aI8597
aI8598
aI8599
aI8600
aI8601
aI8602
aI8603
aI8604
aI8605
aI8606
aI8607
aI8608
aI8609
aI8610
aI8611
aI8612
aI8613
aI8614
aI8615
aI8616
aI8617
aI8618
aI8619
aI8620
aI8621
aI8622
aI8623
aI8624
aI8625
aI8626
aI8627
aI8628
aI8629
aI8630
aI8631
aI8632
aI8633
aI8634
aI8635
aI8636
aI8637
aI8638
aI8639
aI8640
aI8641
aI8642
aI8643
aI8644
aI8645
aI8646
aI8647
aI8648
aI8649
aI8650
aI8651
aI8652
aI8653
aI8654
aI8655
aI8656
aI8657
aI8658
aI8659
aI8660
aI8661
aI8662
aI8663
aI8664
aI8665
aI8666
aI8667
aI8668
aI8669
aI8670
aI8671
aI8672
aI8673
aI8674
aI8675
aI8676
aI8677
aI8678
aI8679
aI8680
aI8681
aI8682
aI8683
aI8684
aI8685
aI8686
aI8687
aI8688
aI8689
aI8690
aI8691
aI8692
aI8693
aI8694
aI8695
aI8696
aI8697
aI8698
aI8699
aI8700
aI8701
aI8702
aI8703
aI8704
aI8705
aI8706
aI8707
aI8708
aI8709
aI8710
aI8711
aI8712
aI8713
aI8714
aI8715
aI8716
aI8717
aI8718
aI8719
aI8720
aI8721
aI8722
aI8723
aI8724
aI8725
aI8726
aI8727
aI8728
aI8729
aI8730
aI8731
aI8732
aI8733
aI8734
aI8735
aI8736
aI8737
aI8738
aI8739
aI8740
aI8741
aI8742
aI8743
aI8744
aI8745
aI8746
aI8747
aI8748
aI8749
aI8750
aI8751
aI8752
aI8753
aI8754
aI8755
aI8756
aI8757
aI8758
aI8759
aI8760
aI8761
aI8762
aI8763
aI8764
aI8765
aI8766
aI8767
aI8768
aI8769
aI8770
aI8771
aI8772
aI8773
aI8774
aI8775
aI8776
aI8777
aI8778
aI8779
aI8780
aI8781
aI8782
aI8783
aI8784
aI8785
aI8786
aI8787
aI8788
aI8789
aI8790
aI8791
aI8792
aI8793
aI8794
aI8795
aI8796
aI8797
aI8798
aI8799
aI8800
aI8801
aI8802
aI8803
aI8804
aI8805
aI8806
aI8807
aI8808
aI8809
aI8810
aI8811
aI8812
aI8813
aI8814
aI8815
aI8816
aI8817
aI8818
aI8819
aI8820
aI8821
aI8822
aI8823
aI8824
aI8825
aI8826
aI8827
aI8828
aI8829
aI8830
aI8831
aI8832
aI8833
aI8834
aI8835
aI8836
aI8837
aI8838
aI8839
aI8840
aI8841
aI8842
aI8843
aI8844
aI8845
aI8846
aI8847
aI8848
aI8849
aI8850
aI8851
aI8852
aI8853
aI8854
aI8855
aI8856
aI8857
aI8858
aI8859
aI8860
aI8861
aI8862
aI8863
aI8864
aI8865
aI8866
aI8867
aI8868
aI8869
aI8870
aI8871
aI8872
aI8873
aI8874
aI8875
aI8876
aI8877
aI8878
aI8879
aI8880
aI8881
aI8882
aI8883
aI8884
aI8885
aI8886
aI8887
aI8888
aI8889
aI8890
aI8891
aI8892
aI8893
aI8894
aI8895
aI8896
aI8897
aI8898
aI8899
aI8900
aI8901
aI8902
aI8903
aI8904
aI8905
aI8906
aI8907
aI8908
aI8909
aI8910
aI8911
aI8912
aI8913
aI8914
aI8915
aI8916
aI8917
aI8918
aI8919
aI8920
aI8921
aI8922
aI8923
aI8924
aI8925
aI8926
aI8927
aI8928
aI8929
aI8930
aI8931
aI8932
aI8933
aI8934
aI8935
aI8936
aI8937
aI8938
aI8939
aI8940
aI8941
aI8942
aI8943
aI8944
aI8945
aI8946
aI8947
aI8948
aI8949
aI8950
aI8951
aI8952
aI8953
aI8954
aI8955
aI8956
aI8957
aI8958
aI8959
aI8960
aI8961
aI8962
aI8963
aI8964
aI8965
aI8966
aI8967
aI8968
aI8969
aI8970
aI8971
aI8972
aI8973
aI8974
aI8975
aI8976
aI8977
aI8978
aI8979
aI8980
aI8981
aI8982
aI8983
aI8984
aI8985
aI8986
aI8987
aI8988
aI8989
aI8990
aI8991
aI8992
aI8993
aI8994
aI8995
aI8996
aI8997
aI8998
aI8999
as.