(dp1
S'steps'
p2
(lp3
I108
aI109
aI52
aI91
aI89
aI82
aI82
aI82
aI68
aI83
aI82
aI82
aI71
aI82
aI83
aI70
aI84
aI66
aI66
aI51
aI84
aI126
aI82
aI48
aI51
aI50
aI66
aI73
aI66
aI130
aI86
aI83
aI66
aI128
aI82
aI84
aI81
aI85
aI81
aI66
aI81
aI65
aI67
aI81
aI86
aI44
aI67
aI67
aI67
aI69
aI81
aI82
aI67
aI67
aI67
aI144
aI51
aI67
aI85
aI73
aI67
aI103
aI116
aI126
aI161
aI71
aI101
aI51
aI67
aI39
aI67
aI67
aI67
aI67
aI53
aI53
aI51
aI43
aI66
aI67
aI67
aI67
aI128
aI84
aI94
aI133
aI125
aI93
aI68
aI67
aI68
aI67
aI67
aI112
aI114
aI72
aI67
aI68
aI121
aI92
aI70
aI93
aI67
aI51
aI51
aI67
aI91
aI93
aI68
aI68
aI67
aI67
aI74
aI84
aI67
aI67
aI67
aI67
aI80
aI53
aI83
aI67
aI99
aI66
aI67
aI67
aI67
aI67
aI67
aI82
aI124
aI94
aI102
aI67
aI108
aI91
aI67
aI67
aI67
aI67
aI109
aI117
aI124
aI69
aI68
aI69
aI61
aI120
aI67
aI68
aI69
aI91
aI95
aI64
aI112
aI66
aI69
aI100
aI71
aI90
aI65
aI68
aI62
aI70
aI81
aI82
aI67
aI95
aI67
aI67
aI67
aI67
aI66
aI68
aI45
aI71
aI93
aI72
aI73
aI65
aI66
aI124
aI109
aI95
aI83
aI83
aI84
aI102
aI96
aI74
aI96
aI108
aI82
aI69
aI94
aI69
aI76
aI63
aI92
aI65
aI92
aI71
aI129
aI62
aI72
aI69
aI66
aI114
aI115
aI62
aI108
aI71
aI69
aI96
aI72
aI68
aI63
aI62
aI93
aI62
aI68
aI70
aI70
aI95
aI73
aI62
aI69
aI63
aI62
aI71
aI65
aI93
aI68
aI50
aI65
aI82
aI69
aI63
aI67
aI109
aI94
aI111
aI73
aI63
aI63
aI123
aI62
aI80
aI95
aI69
aI54
aI49
aI98
aI123
aI62
aI94
aI80
aI66
aI95
aI101
aI97
aI66
aI63
aI69
aI64
aI64
aI66
aI67
aI64
aI67
aI124
aI41
aI55
aI62
aI124
aI44
aI70
aI108
aI54
aI51
aI92
aI62
aI72
aI90
aI147
aI66
aI100
aI111
aI67
aI56
aI49
aI93
aI95
aI63
aI62
aI129
aI48
aI62
aI67
aI130
aI79
aI108
aI106
aI63
aI92
aI68
aI97
aI72
aI54
aI65
aI45
aI106
aI42
aI68
aI48
aI51
aI64
aI68
aI64
aI83
aI48
aI98
aI120
aI68
aI69
aI63
aI69
aI63
aI114
aI96
aI163
aI70
aI59
aI66
aI94
aI69
aI83
aI94
aI123
aI83
aI68
aI84
aI68
aI64
aI65
aI101
aI66
aI39
aI70
aI45
aI39
aI53
aI51
aI42
aI63
aI39
aI63
aI68
aI53
aI70
aI63
aI48
aI127
aI62
aI100
aI95
aI65
aI96
aI68
aI96
aI115
aI66
aI69
aI71
aI70
aI56
aI69
aI68
aI65
aI68
aI64
aI87
aI61
aI62
aI66
aI66
aI108
aI93
aI52
aI125
aI69
aI68
aI64
aI98
aI93
aI93
aI48
aI63
aI48
aI63
aI52
aI69
aI63
aI154
aI48
aI112
aI72
aI65
aI39
aI55
aI64
aI95
aI69
aI94
aI65
aI139
aI64
aI91
aI67
aI70
aI105
aI98
aI144
aI69
aI50
aI74
aI63
aI72
aI86
aI142
aI78
aI72
aI62
aI77
aI64
aI109
aI130
aI82
aI121
aI51
aI72
aI93
aI67
aI119
aI87
aI128
aI127
aI110
aI121
aI94
aI53
aI142
aI70
aI105
aI72
aI108
aI100
aI65
aI72
aI54
aI76
aI111
aI70
aI64
aI118
aI70
aI68
aI68
aI63
aI55
aI91
aI61
aI70
aI71
aI38
aI109
aI71
aI79
aI49
aI69
aI39
aI70
aI72
aI38
aI65
aI66
aI70
aI70
aI39
aI74
aI173
aI68
aI51
aI64
aI124
aI55
aI109
aI80
aI66
aI68
aI82
aI68
aI91
aI63
aI108
aI51
aI69
aI94
aI66
aI42
aI113
aI113
aI39
aI90
aI75
aI40
aI110
aI95
aI66
aI68
aI88
aI73
aI92
aI162
aI51
aI52
aI93
aI90
aI149
aI127
aI93
aI66
aI97
aI75
aI95
aI106
aI106
aI93
aI55
aI89
aI42
aI47
aI68
aI96
aI62
aI128
aI66
aI109
aI95
aI42
aI93
aI62
aI96
aI67
aI106
aI55
aI94
aI58
aI65
aI67
aI88
aI51
aI54
aI52
aI51
aI67
aI94
aI48
aI49
aI54
aI52
aI74
aI82
aI83
aI81
aI67
aI67
aI70
aI55
aI64
aI72
aI92
aI94
aI110
aI97
aI111
aI89
aI118
aI72
aI72
aI123
aI68
aI98
aI91
aI51
aI62
aI67
aI62
aI52
aI69
aI51
aI115
aI52
aI65
aI112
aI94
aI131
aI63
aI52
aI51
aI62
aI104
aI80
aI66
aI146
aI63
aI105
aI70
aI66
aI151
aI63
aI66
aI87
aI109
aI104
aI62
aI70
aI71
aI131
aI40
aI69
aI48
aI49
aI55
aI63
aI49
aI106
aI92
aI102
aI63
aI66
aI65
aI153
aI124
aI127
aI121
aI74
aI67
aI97
aI54
aI93
aI62
aI61
aI68
aI56
aI89
aI63
aI67
aI51
aI69
aI63
aI82
aI80
aI111
aI92
aI162
aI84
aI61
aI63
aI36
aI48
aI80
aI66
aI38
aI89
aI52
aI39
aI68
aI96
aI74
aI42
aI97
aI37
aI74
aI39
aI55
aI49
aI49
aI53
aI53
aI93
aI40
aI69
aI96
aI162
aI99
aI154
aI65
aI99
aI66
aI118
aI91
aI63
aI94
aI66
aI65
aI83
aI64
aI109
aI126
aI64
aI124
aI79
aI64
aI89
aI71
aI45
aI124
aI123
aI99
aI64
aI45
aI90
aI100
aI66
aI67
aI85
aI102
aI97
aI65
aI110
aI104
aI92
aI62
aI72
aI61
aI51
aI103
aI67
aI105
aI111
aI94
aI91
aI65
aI70
aI89
aI109
aI114
aI76
aI64
aI100
aI119
aI62
aI67
aI92
aI50
aI137
aI123
aI77
aI74
aI68
aI121
aI115
aI121
aI98
aI94
aI120
aI112
aI82
aI94
aI105
aI112
aI81
aI106
aI88
aI97
aI106
aI68
aI107
aI71
aI66
aI113
aI79
aI71
aI95
aI55
aI39
aI59
aI67
aI97
aI71
aI91
aI67
aI65
aI115
aI91
aI98
aI94
aI69
aI44
aI113
aI127
aI47
aI94
aI68
aI49
aI106
aI69
aI87
aI46
aI103
aI36
aI97
aI48
aI68
aI69
aI87
aI98
aI98
aI62
aI109
aI95
aI50
aI104
aI106
aI98
aI107
aI109
aI53
aI139
aI112
aI112
aI67
aI96
aI85
aI98
aI156
aI78
aI124
aI49
aI124
aI122
aI51
aI62
aI117
aI84
aI96
aI58
aI67
aI80
aI67
aI68
aI51
aI52
aI88
aI101
aI65
aI96
aI93
aI46
aI74
aI54
aI44
aI74
aI81
aI67
aI87
aI94
aI39
aI51
aI123
aI71
aI39
aI65
aI54
aI162
aI63
aI70
aI47
aI96
aI53
aI110
aI66
aI51
aI85
aI66
aI95
aI109
aI64
aI52
aI79
aI55
aI67
aI39
aI74
aI66
aI50
aI61
aI66
aI78
aI153
aI107
aI71
aI90
aI108
aI84
aI69
aI46
aI66
aI89
aI66
aI91
aI44
aI54
aI110
aI48
aI64
aI41
aI70
aI80
aI50
aI130
aI42
aI45
aI38
aI61
aI124
aI54
aI75
aI49
aI65
aI37
aI58
aI106
aI111
aI91
aI63
aI63
aI64
aI69
aI42
aI162
aI54
aI65
aI106
aI42
aI63
aI125
aI52
aI34
aI42
aI41
aI64
aI53
aI168
aI51
aI150
aI40
aI40
aI63
aI63
aI70
aI52
aI67
aI63
aI50
aI68
aI51
aI67
aI72
aI67
aI108
aI89
aI70
aI66
aI37
aI154
aI66
aI66
aI55
aI116
aI96
aI109
aI69
aI66
aI68
aI124
aI127
aI97
aI55
aI48
aI65
aI48
aI58
aI69
aI72
aI49
aI49
aI94
aI67
aI128
aI64
aI70
aI65
aI65
aI66
aI66
aI66
aI67
aI78
aI91
aI80
aI65
aI93
aI38
aI38
aI64
aI97
aI38
aI96
aI68
aI65
aI63
aI96
aI83
aI50
aI127
aI123
aI96
aI94
aI86
aI92
aI121
aI68
aI92
aI49
aI67
aI65
aI53
aI67
aI65
aI65
aI49
aI69
aI67
aI68
aI67
aI94
aI71
aI96
aI91
aI156
aI122
aI95
aI96
aI40
aI68
aI81
aI40
aI68
aI63
aI95
aI68
aI96
aI49
aI38
aI54
aI65
aI70
aI65
aI96
aI122
aI66
aI70
aI66
aI92
aI96
aI69
aI91
aI67
aI155
aI96
aI71
aI153
aI63
aI92
aI63
aI69
aI96
aI66
aI68
aI95
aI96
aI63
aI64
aI54
aI37
aI65
aI50
aI54
aI50
aI124
aI97
aI121
aI66
aI67
aI50
aI52
aI63
aI64
aI96
aI66
aI36
aI94
aI94
aI95
aI40
aI64
aI92
aI39
aI66
aI91
aI63
aI66
aI71
aI38
aI96
aI126
aI39
aI123
aI88
aI66
aI119
aI94
aI52
aI55
aI123
aI65
aI71
aI123
aI94
aI50
aI123
aI68
aI94
aI51
aI39
aI64
aI49
aI123
aI97
aI149
aI128
aI162
aI68
aI62
aI59
aI50
aI34
aI34
aI73
aI34
aI52
aI38
aI121
aI38
aI38
aI38
aI38
aI58
aI87
aI97
aI70
aI38
aI38
aI72
aI55
aI84
aI90
aI122
aI94
aI91
aI97
aI38
aI122
aI38
aI45
aI93
aI83
aI109
aI47
aI40
aI52
aI89
aI39
aI40
aI99
aI50
aI50
aI91
aI62
aI56
aI94
aI144
aI34
aI129
aI92
aI52
aI69
aI65
aI152
aI94
aI125
aI83
aI101
aI95
aI65
aI89
aI94
aI70
aI57
aI64
aI56
aI127
aI59
aI59
aI93
aI113
aI36
aI34
aI80
aI74
aI92
aI104
aI68
aI123
aI91
aI161
aI72
aI115
aI111
aI84
aI94
aI53
aI116
aI69
aI89
aI91
aI114
aI38
aI79
aI36
aI52
aI91
aI104
aI69
aI96
aI105
aI99
aI69
aI74
aI66
aI91
aI66
aI77
aI66
aI66
aI68
aI89
aI94
aI62
aI99
aI80
aI69
aI143
aI92
aI96
aI91
aI82
aI107
aI108
aI128
aI94
aI58
aI66
aI61
aI37
aI134
aI118
aI80
aI111
aI59
aI66
aI63
aI55
aI93
aI97
aI68
aI40
aI93
aI52
aI73
aI73
aI58
aI63
aI64
aI65
aI93
aI69
aI72
aI95
aI65
aI66
aI154
aI98
aI114
aI58
aI92
aI53
aI96
aI94
aI126
aI39
aI91
aI52
aI51
aI69
aI69
aI38
aI34
aI104
aI34
aI121
aI44
aI124
aI63
aI68
aI34
aI48
aI70
aI64
aI84
aI83
aI130
aI50
aI53
aI81
aI56
aI72
aI68
aI70
aI65
aI66
aI66
aI148
aI36
aI162
aI75
aI94
aI56
aI59
aI69
aI96
aI64
aI49
aI66
aI37
aI70
aI102
aI122
aI95
aI62
aI62
aI92
aI73
aI112
aI65
aI68
aI127
aI41
aI105
aI89
aI70
aI89
aI52
aI34
aI34
aI54
aI49
aI98
aI34
aI34
aI34
aI68
aI68
aI69
aI68
aI66
aI92
aI52
aI50
aI65
aI66
aI108
aI69
aI37
aI51
aI38
aI49
aI37
aI68
aI93
aI69
aI64
aI55
aI70
aI92
aI35
aI71
aI51
aI51
aI34
aI92
aI111
aI38
aI35
aI93
aI46
aI122
aI37
aI54
aI37
aI37
aI123
aI90
aI72
aI53
aI37
aI81
aI49
aI87
aI34
aI51
aI34
aI69
aI64
aI66
aI66
aI90
aI109
aI37
aI37
aI37
aI38
aI65
aI37
aI124
aI37
aI65
aI92
aI91
aI64
aI37
aI37
aI121
aI95
aI64
aI153
aI49
aI148
aI77
aI155
aI152
aI72
aI79
aI49
aI34
aI107
aI37
aI87
aI82
aI37
aI37
aI63
aI64
aI65
aI68
aI68
aI63
aI55
aI108
aI37
aI51
aI98
aI98
aI69
aI68
aI105
aI110
aI108
aI78
aI78
aI73
aI93
aI84
aI99
aI94
aI63
aI79
aI63
aI68
aI64
aI63
aI51
aI122
aI122
aI71
aI106
aI121
aI46
aI54
aI54
aI70
aI122
aI91
aI133
aI79
aI54
aI108
aI69
aI126
aI79
aI34
aI34
aI36
aI37
aI37
aI162
aI127
aI70
aI92
aI68
aI121
aI128
aI90
aI91
aI55
aI103
aI54
aI120
aI54
aI54
aI96
aI37
aI110
aI110
aI95
aI49
aI59
aI107
aI77
aI93
aI91
aI150
aI90
aI36
aI113
aI70
aI111
aI49
aI162
aI65
aI84
aI91
aI108
aI73
aI131
aI76
aI52
aI37
aI63
aI37
aI69
aI151
aI38
aI81
aI76
aI82
aI71
aI77
aI63
aI93
aI94
aI67
aI51
aI53
aI52
aI49
aI54
aI90
aI63
aI94
aI124
aI37
aI76
aI37
aI67
aI54
aI66
aI122
aI51
aI52
aI51
aI78
aI70
aI92
aI66
aI95
aI68
aI51
aI52
aI50
aI34
aI74
aI34
aI51
aI67
aI49
aI49
aI97
aI114
aI76
aI70
aI108
aI93
aI50
aI50
aI52
aI117
aI124
aI38
aI93
aI48
aI64
aI54
aI35
aI70
aI66
aI68
aI91
aI96
aI96
aI51
aI95
aI67
aI63
aI50
aI68
aI152
aI52
aI51
aI96
aI49
aI54
aI124
aI54
aI65
aI64
aI69
aI38
aI74
aI37
aI122
aI54
aI85
aI51
aI68
aI161
aI65
aI90
aI50
aI102
aI104
aI40
aI83
aI49
aI54
aI113
aI38
aI80
aI89
aI77
aI66
aI51
aI51
aI49
aI52
aI50
aI66
aI92
aI52
aI54
aI50
aI52
aI65
aI51
aI56
aI57
aI49
aI126
aI51
aI65
aI107
aI84
aI65
aI51
aI69
aI46
aI51
aI51
aI51
aI79
aI100
aI96
aI59
aI38
aI38
aI52
aI80
aI51
aI51
aI55
aI37
aI35
aI49
aI54
aI91
aI92
aI38
aI51
aI51
aI52
aI49
aI118
aI52
aI52
aI66
aI66
aI112
aI105
aI70
aI95
aI70
aI54
aI97
aI54
aI79
aI81
aI95
aI93
aI67
aI57
aI107
aI56
aI38
aI36
aI132
aI47
aI67
aI49
aI127
aI90
aI49
aI54
aI69
aI49
aI161
aI55
aI125
aI151
aI66
aI50
aI78
aI123
aI117
aI93
aI108
aI69
aI82
aI68
aI108
aI85
aI66
aI110
aI97
aI111
aI65
aI74
aI130
aI71
aI51
aI64
aI51
aI52
aI74
aI111
aI89
aI123
aI93
aI76
aI88
aI66
aI55
aI79
aI113
aI50
aI83
aI93
aI53
aI51
aI69
aI71
aI60
aI98
aI69
aI92
aI117
aI137
aI55
aI94
aI71
aI93
aI88
aI122
aI65
aI77
aI162
aI101
aI89
aI109
aI66
aI68
aI73
aI47
aI113
aI63
aI66
aI86
aI34
aI92
aI59
aI125
aI107
aI64
aI63
aI65
aI67
aI69
aI66
aI100
aI40
aI65
aI66
aI40
aI49
aI48
aI113
aI51
aI66
aI66
aI66
aI65
aI93
aI35
aI96
aI54
aI124
aI51
aI62
aI52
aI62
aI35
aI89
aI103
aI50
aI49
aI90
aI93
aI35
aI49
aI35
aI100
aI121
aI94
aI51
aI49
aI39
aI49
aI87
aI89
aI65
aI64
aI67
aI99
aI65
aI65
aI61
aI49
aI98
aI90
aI49
aI40
aI49
aI70
aI68
aI162
aI53
aI95
aI38
aI120
aI66
aI53
aI42
aI123
aI41
aI41
aI49
aI158
aI66
aI49
aI53
aI51
aI51
aI115
aI74
aI127
aI49
aI49
aI49
aI88
aI66
aI67
aI57
aI76
aI108
aI49
aI59
aI49
aI49
aI53
aI90
aI53
aI52
aI52
aI50
aI111
aI67
aI50
aI36
aI84
aI71
aI52
aI123
aI57
aI93
aI55
aI65
aI135
aI40
aI94
aI68
aI40
aI40
aI64
aI86
aI61
aI69
aI49
aI49
aI69
aI113
aI122
aI50
aI96
aI68
aI68
aI95
aI70
aI100
aI66
aI71
aI53
aI52
aI92
aI52
aI91
aI35
aI52
aI131
aI108
aI55
aI49
aI87
aI72
aI92
aI49
aI109
aI70
aI56
aI65
aI38
aI49
aI49
aI35
aI110
aI98
aI79
aI49
aI115
aI102
aI94
aI35
aI40
aI116
aI72
aI48
aI79
aI51
aI63
aI54
aI67
aI66
aI52
aI64
aI75
aI102
aI64
aI68
aI69
aI67
aI54
aI70
aI49
aI123
aI66
aI93
aI79
aI93
aI95
aI70
aI69
aI41
aI68
aI115
aI108
aI41
aI66
aI49
aI55
aI128
aI38
aI49
aI56
aI91
aI49
aI56
aI72
aI70
aI50
aI52
aI79
aI50
aI51
aI71
aI55
aI72
aI51
aI51
aI52
aI73
aI114
aI72
aI52
aI126
aI55
aI104
aI115
aI100
aI78
aI91
aI66
aI99
aI50
aI76
aI113
aI69
aI116
aI50
aI123
aI47
aI65
aI71
aI66
aI65
aI66
aI71
aI64
aI136
aI82
aI50
aI50
aI63
aI116
aI69
aI96
aI70
aI97
aI54
aI78
aI41
aI57
aI90
aI66
aI126
aI65
aI64
aI108
aI84
aI65
aI114
aI66
aI64
aI73
aI70
aI92
aI71
aI66
aI73
aI70
aI97
aI63
aI41
aI131
aI66
aI110
aI52
aI120
aI74
aI66
aI66
aI65
aI66
aI51
aI55
aI68
aI94
aI96
aI56
aI151
aI62
aI92
aI115
aI41
aI82
aI68
aI67
aI67
aI67
aI67
aI88
aI112
aI65
aI49
aI41
aI91
aI40
aI83
aI66
aI54
aI41
aI94
aI67
aI40
aI41
aI54
aI99
aI53
aI80
aI69
aI40
aI41
aI56
aI70
aI70
aI68
aI83
aI65
aI65
aI52
aI65
aI67
aI66
aI49
aI99
aI54
aI148
aI64
aI125
aI66
aI147
aI49
aI37
aI64
aI164
aI72
aI98
aI66
aI87
aI81
aI93
aI65
aI65
aI51
aI52
aI68
aI65
aI66
aI65
aI65
aI66
aI41
aI79
aI41
aI41
aI41
aI119
aI65
aI51
aI75
aI38
aI110
aI109
aI66
aI71
aI71
aI48
aI95
aI66
aI72
aI67
aI93
aI71
aI50
aI67
aI67
aI64
aI67
aI54
aI98
aI67
aI89
aI50
aI36
aI80
aI125
aI80
aI65
aI65
aI71
aI94
aI41
aI69
aI68
aI71
aI51
aI66
aI65
aI56
aI67
aI64
aI49
aI52
aI95
aI70
aI69
aI96
aI68
aI66
aI97
aI65
aI67
aI87
aI51
aI64
aI122
aI78
aI96
aI41
aI69
aI41
aI69
aI52
aI67
aI68
aI160
aI92
aI41
aI41
aI65
aI71
aI57
aI63
aI65
aI38
aI72
aI52
aI63
aI69
aI88
aI55
aI69
aI93
aI108
aI37
aI38
aI86
aI99
aI35
aI84
aI68
aI65
aI98
aI67
aI38
aI52
aI93
aI52
aI69
aI41
aI65
aI40
aI84
aI51
aI52
aI48
aI110
aI41
aI53
aI110
aI94
aI52
aI48
aI41
aI76
aI92
aI70
aI112
aI115
aI69
aI37
aI38
aI99
aI122
aI50
aI41
aI91
aI38
aI54
aI57
aI108
aI46
aI53
aI63
aI110
aI52
aI92
aI50
aI49
aI52
aI53
aI122
aI68
aI51
aI94
aI38
aI38
aI83
aI54
aI138
aI92
aI70
aI71
aI62
aI48
aI92
aI103
aI41
aI94
aI51
aI80
aI51
aI85
aI108
aI56
aI79
aI50
aI66
aI70
aI92
aI55
aI50
aI41
aI41
aI92
aI40
aI62
aI118
aI108
aI97
aI60
aI71
aI85
aI99
aI65
aI53
aI72
aI94
aI114
aI64
aI57
aI72
aI116
aI90
aI55
aI93
aI56
aI56
aI58
aI124
aI41
aI36
aI62
aI93
aI40
aI41
aI69
aI56
aI159
aI41
aI41
aI69
aI52
aI63
aI48
aI48
aI48
aI69
aI56
aI51
aI83
aI156
aI108
aI154
aI68
aI62
aI72
aI51
aI40
aI66
aI57
aI51
aI53
aI50
aI54
aI63
aI71
aI75
aI64
aI68
aI56
aI92
aI51
aI51
aI91
aI63
aI54
aI91
aI93
aI98
aI51
aI133
aI51
aI40
aI66
aI76
aI93
aI50
aI57
aI70
aI93
aI57
aI55
aI92
aI51
aI48
aI50
aI56
aI93
aI57
aI56
aI68
aI100
aI114
aI57
aI50
aI68
aI51
aI68
aI63
aI99
aI110
aI52
aI57
aI53
aI64
aI51
aI51
aI51
aI51
aI53
aI71
aI72
aI123
aI56
aI92
aI67
aI58
aI79
aI52
aI64
aI92
aI51
aI52
aI99
aI37
aI64
aI69
aI57
aI91
aI94
aI70
aI96
aI129
aI61
aI67
aI74
aI107
aI72
aI52
aI124
aI113
aI93
aI51
aI51
aI84
aI71
aI51
aI67
aI68
aI57
aI51
aI51
aI89
aI68
aI36
aI161
aI76
aI55
aI94
aI93
aI64
aI68
aI128
aI51
aI126
aI62
aI53
aI161
aI68
aI67
aI126
aI49
aI131
aI68
aI81
aI51
aI57
aI56
aI148
aI66
aI51
aI64
aI51
aI53
aI82
aI59
aI56
aI62
aI63
aI64
aI108
aI57
aI159
aI67
aI52
aI56
aI70
aI51
aI64
aI94
aI91
aI65
aI64
aI52
aI52
aI98
aI40
aI108
aI66
aI89
aI70
aI51
aI53
aI40
aI141
aI55
aI94
aI79
aI45
aI127
aI51
aI94
aI110
aI72
aI69
aI67
aI49
aI53
aI82
aI72
aI65
aI52
aI64
aI136
aI63
aI115
aI64
aI70
aI71
aI64
aI70
aI70
aI96
aI53
aI125
aI111
aI65
aI51
aI51
aI92
aI52
aI51
aI92
aI127
aI57
aI114
aI52
aI66
aI64
aI49
aI56
aI92
aI51
aI51
aI143
aI52
aI71
aI51
aI41
aI53
aI68
aI110
aI52
aI76
aI128
aI52
aI52
aI94
aI55
aI92
aI92
aI121
aI84
aI96
aI93
aI128
aI51
aI71
aI92
aI55
aI111
aI56
aI69
aI66
aI71
aI112
aI69
aI82
aI94
aI45
aI49
aI110
aI107
aI69
aI52
aI66
aI48
aI39
aI68
aI64
aI63
aI72
aI105
aI85
aI58
aI127
aI118
aI51
aI56
aI67
aI97
aI53
aI91
aI88
aI133
aI79
aI93
aI122
aI69
aI89
aI123
aI73
aI68
aI109
aI92
aI66
aI69
aI70
aI93
aI95
aI80
aI51
aI65
aI122
aI86
aI51
aI51
aI70
aI40
aI52
aI38
aI70
aI63
aI155
aI114
aI53
aI98
aI52
aI41
aI68
aI73
aI68
aI103
aI55
aI68
aI70
aI50
aI68
aI115
aI51
aI105
aI67
aI36
aI64
aI122
aI38
aI84
aI94
aI52
aI64
aI140
aI69
aI104
aI66
aI65
aI91
aI50
aI95
aI50
aI120
aI52
aI53
aI90
aI51
aI89
aI53
aI67
aI49
aI103
aI52
aI52
aI66
aI39
aI65
aI132
aI64
aI122
aI71
aI50
aI97
aI122
aI50
aI51
aI71
aI116
aI66
aI59
aI71
aI69
aI125
aI94
aI127
aI66
aI51
aI51
aI50
aI96
aI126
aI66
aI93
aI51
aI120
aI68
aI120
aI136
aI70
aI117
aI125
aI52
aI70
aI80
aI38
aI65
aI52
aI92
aI53
aI38
aI53
aI93
aI74
aI67
aI132
aI69
aI55
aI99
aI53
aI68
aI52
aI92
aI93
aI72
aI51
aI93
aI152
aI96
aI116
aI93
aI51
aI51
aI90
aI48
aI65
aI66
aI64
aI38
aI63
aI55
aI63
aI67
aI53
aI66
aI65
aI80
aI111
aI79
aI74
aI55
aI64
aI93
aI75
aI127
aI64
aI52
aI65
aI86
aI128
aI38
aI111
aI111
aI124
aI55
aI72
aI69
aI50
aI69
aI108
aI65
aI112
aI70
aI93
aI51
aI51
aI51
aI95
aI53
aI93
aI50
aI178
aI102
aI53
aI124
aI50
aI52
aI80
aI51
aI70
aI111
aI52
aI65
aI79
aI66
aI51
aI55
aI122
aI50
aI51
aI112
aI82
aI81
aI80
aI50
aI54
aI127
aI50
aI79
aI70
aI95
aI68
aI50
aI40
aI64
aI86
aI49
aI69
aI51
aI68
aI67
aI65
aI38
aI65
aI38
aI51
aI92
aI66
aI65
aI65
aI51
aI52
aI76
aI93
aI98
aI52
aI67
aI69
aI55
aI110
aI51
aI71
aI109
aI80
asS'reward'
p4
(lp5
F655
aF325
aF110
aF295
aF205
aF180
aF180
aF210
aF155
aF210
aF155
aF180
aF180
aF155
aF210
aF150
aF210
aF105
aF105
aF75
aF250
aF105
aF180
aF120
aF90
aF75
aF155
aF150
aF105
aF300
aF180
aF180
aF105
aF145
aF155
aF380
aF120
aF170
aF120
aF105
aF135
aF120
aF105
aF120
aF180
aF105
aF105
aF125
aF105
aF120
aF135
aF180
aF105
aF105
aF105
aF135
aF75
aF105
aF120
aF125
aF105
aF175
aF135
aF335
aF150
aF120
aF150
aF105
aF105
aF80
aF105
aF105
aF105
aF105
aF125
aF105
aF120
aF105
aF105
aF105
aF105
aF105
aF120
aF315
aF135
aF170
aF150
aF170
aF105
aF105
aF105
aF75
aF105
aF210
aF195
aF65
aF105
aF105
aF100
aF130
aF70
aF95
aF105
aF75
aF75
aF105
aF165
aF210
aF120
aF105
aF105
aF105
aF180
aF105
aF105
aF105
aF110
aF105
aF105
aF90
aF105
aF105
aF175
aF105
aF105
aF105
aF105
aF105
aF105
aF210
aF105
aF155
aF235
aF105
aF110
aF150
aF155
aF105
aF105
aF105
aF310
aF180
aF235
aF125
aF200
aF205
aF110
aF105
aF105
aF155
aF125
aF200
aF175
aF155
aF295
aF190
aF220
aF250
aF140
aF505
aF180
aF170
aF85
aF145
aF105
aF210
aF135
aF150
aF135
aF105
aF105
aF105
aF105
aF105
aF45
aF155
aF155
aF145
aF265
aF155
aF175
aF230
aF190
aF240
aF210
aF265
aF300
aF255
aF185
aF180
aF230
aF390
aF230
aF140
aF215
aF230
aF205
aF70
aF120
aF105
aF80
aF135
aF255
aF115
aF145
aF185
aF180
aF275
aF355
aF115
aF180
aF155
aF155
aF195
aF170
aF170
aF90
aF20
aF325
aF150
aF155
aF170
aF170
aF200
aF155
aF140
aF140
aF70
aF50
aF100
aF40
aF90
aF35
aF0
aF0
aF95
aF245
aF100
aF105
aF415
aF160
aF255
aF175
aF55
aF130
aF170
aF55
aF170
aF200
aF155
aF170
aF120
aF185
aF150
aF55
aF350
aF195
aF185
aF200
aF145
aF195
aF100
aF130
aF125
aF65
aF55
aF15
aF30
aF0
aF50
aF120
aF15
aF15
aF50
aF155
aF70
aF150
aF265
aF150
aF105
aF430
aF110
aF145
aF200
aF485
aF200
aF230
aF285
aF180
aF125
aF95
aF195
aF165
aF80
aF85
aF285
aF80
aF50
aF140
aF445
aF230
aF150
aF265
aF165
aF145
aF65
aF135
aF60
aF90
aF30
aF0
aF245
aF75
aF150
aF80
aF105
aF65
aF95
aF125
aF150
aF65
aF175
aF460
aF125
aF205
aF105
aF205
aF80
aF230
aF155
aF600
aF225
aF210
aF225
aF290
aF145
aF160
aF230
aF370
aF175
aF120
aF215
aF120
aF85
aF130
aF185
aF65
aF0
aF30
aF0
aF0
aF0
aF0
aF0
aF5
aF0
aF50
aF15
aF0
aF105
aF0
aF0
aF220
aF45
aF515
aF185
aF100
aF195
aF120
aF175
aF235
aF120
aF185
aF325
aF205
aF185
aF145
aF120
aF120
aF120
aF75
aF135
aF100
aF55
aF100
aF95
aF140
aF180
aF80
aF415
aF155
aF120
aF85
aF100
aF185
aF215
aF80
aF90
aF185
aF125
aF105
aF160
aF110
aF245
aF65
aF300
aF150
aF85
aF30
aF105
aF115
aF135
aF140
aF235
aF65
aF180
aF135
aF145
aF140
aF160
aF100
aF165
aF170
aF115
aF45
aF170
aF110
aF195
aF195
aF660
aF275
aF210
aF155
aF100
aF95
aF215
aF770
aF180
aF315
aF135
aF180
aF260
aF210
aF290
aF170
aF470
aF730
aF320
aF360
aF335
aF45
aF410
aF75
aF585
aF155
aF450
aF485
aF210
aF200
aF50
aF215
aF290
aF30
aF0
aF105
aF50
aF0
aF0
aF5
aF0
aF45
aF0
aF30
aF75
aF5
aF165
aF65
aF120
aF25
aF100
aF0
aF75
aF130
aF25
aF55
aF15
aF50
aF55
aF5
aF120
aF210
aF30
aF105
aF60
aF185
aF155
aF260
aF110
aF65
aF50
aF105
aF105
aF125
aF105
aF345
aF105
aF235
aF495
aF160
aF80
aF410
aF210
aF80
aF275
aF230
aF75
aF470
aF180
aF165
aF75
aF185
aF220
aF235
aF175
aF45
aF80
aF80
aF260
aF135
aF285
aF440
aF125
aF250
aF210
aF225
aF245
aF290
aF305
aF50
aF205
aF70
aF30
aF35
aF125
aF105
aF75
aF110
aF230
aF185
aF35
aF30
aF105
aF65
aF60
aF215
aF45
aF190
aF105
aF30
aF30
aF65
aF30
aF30
aF105
aF30
aF60
aF150
aF45
aF55
aF55
aF45
aF95
aF125
aF105
aF80
aF65
aF30
aF50
aF40
aF35
aF240
aF345
aF460
aF335
aF230
aF205
aF160
aF100
aF220
aF220
aF240
aF100
aF105
aF410
aF30
aF65
aF55
aF135
aF90
aF75
aF45
aF225
aF105
aF125
aF305
aF180
aF265
aF65
aF55
aF105
aF180
aF245
aF270
aF225
aF260
aF150
aF235
aF155
aF150
aF240
aF45
aF60
aF175
aF195
aF315
aF70
aF165
aF160
aF110
aF75
aF120
aF135
aF105
aF80
aF160
aF105
aF135
aF225
aF460
aF65
aF80
aF120
aF150
aF165
aF475
aF155
aF180
aF140
aF410
aF150
aF545
aF110
aF125
aF140
aF95
aF265
aF110
aF170
aF105
aF155
aF200
aF195
aF205
aF145
aF85
aF205
aF240
aF140
aF200
aF80
aF30
aF295
aF135
aF105
aF150
aF155
aF30
aF135
aF265
aF180
aF15
aF120
aF75
aF135
aF30
aF75
aF55
aF30
aF75
aF135
aF155
aF75
aF120
aF245
aF215
aF145
aF180
aF110
aF205
aF165
aF115
aF125
aF255
aF95
aF225
aF105
aF220
aF140
aF170
aF520
aF105
aF335
aF225
aF135
aF105
aF145
aF55
aF140
aF190
aF170
aF170
aF105
aF315
aF445
aF165
aF155
aF170
aF290
aF140
aF155
aF270
aF240
aF185
aF120
aF185
aF120
aF55
aF440
aF85
aF225
aF270
aF105
aF225
aF60
aF150
aF210
aF170
aF215
aF285
aF245
aF195
aF285
aF120
aF105
aF165
aF150
aF190
aF270
aF260
aF155
aF125
aF200
aF220
aF105
aF210
aF65
aF160
aF490
aF260
aF335
aF365
aF305
aF135
aF365
aF275
aF180
aF550
aF75
aF290
aF95
aF75
aF165
aF185
aF150
aF125
aF95
aF30
aF120
aF225
aF360
aF115
aF135
aF105
aF110
aF310
aF225
aF230
aF210
aF215
aF130
aF225
aF215
aF60
aF85
aF135
aF80
aF275
aF240
aF215
aF135
aF205
aF50
aF105
aF120
aF105
aF120
aF390
aF270
aF150
aF185
aF245
aF215
aF135
aF260
aF190
aF120
aF185
aF185
aF120
aF500
aF115
aF250
aF110
aF255
aF285
aF320
aF205
aF215
aF130
aF165
aF195
aF210
aF160
aF145
aF275
aF135
aF110
aF115
aF105
aF120
aF110
aF110
aF105
aF160
aF250
aF265
aF140
aF210
aF230
aF120
aF155
aF15
aF185
aF180
aF120
aF175
aF105
aF120
aF35
aF80
aF335
aF90
aF35
aF80
aF120
aF145
aF200
aF230
aF105
aF165
aF105
aF390
aF125
aF160
aF295
aF120
aF185
aF260
aF255
aF140
aF180
aF180
aF195
aF105
aF245
aF180
aF125
aF255
aF185
aF105
aF610
aF465
aF190
aF145
aF135
aF255
aF155
aF75
aF185
aF185
aF55
aF290
aF50
aF60
aF150
aF80
aF65
aF35
aF15
aF15
aF45
aF75
aF40
aF45
aF45
aF65
aF185
aF85
aF165
aF95
aF100
aF65
aF155
aF170
aF445
aF210
aF105
aF135
aF105
aF105
aF50
aF165
aF150
aF125
aF195
aF50
aF45
aF150
aF80
aF60
aF50
aF30
aF130
aF105
aF180
aF35
aF150
aF50
aF80
aF120
aF105
aF150
aF105
aF110
aF110
aF125
aF105
aF140
aF80
aF75
aF30
aF105
aF125
aF125
aF125
aF45
aF180
aF125
aF125
aF105
aF290
aF135
aF155
aF30
aF125
aF120
aF100
aF155
aF290
aF75
aF105
aF120
aF120
aF105
aF135
aF150
aF110
aF90
aF150
aF110
aF150
aF90
aF60
aF65
aF65
aF125
aF125
aF125
aF90
aF70
aF45
aF95
aF115
aF65
aF85
aF85
aF125
aF165
aF90
aF180
aF120
aF90
aF50
aF150
aF105
aF105
aF155
aF195
aF135
aF135
aF125
aF135
aF130
aF125
aF75
aF50
aF65
aF105
aF95
aF105
aF105
aF105
aF80
aF105
aF120
aF105
aF60
aF295
aF55
aF130
aF310
aF125
aF125
aF155
aF105
aF45
aF105
aF165
aF30
aF120
aF80
aF120
aF105
aF145
aF35
aF55
aF125
aF105
aF120
aF60
aF130
aF265
aF50
aF65
aF15
aF140
aF135
aF45
aF105
aF60
aF505
aF130
aF110
aF120
aF105
aF140
aF105
aF150
aF130
aF90
aF140
aF155
aF315
aF105
aF80
aF125
aF60
aF110
aF85
aF125
aF90
aF135
aF120
aF130
aF105
aF105
aF65
aF120
aF105
aF105
aF135
aF105
aF75
aF120
aF120
aF135
aF105
aF105
aF135
aF55
aF105
aF130
aF105
aF105
aF120
aF45
aF140
aF115
aF55
aF140
aF300
aF105
aF135
aF120
aF55
aF155
aF150
aF70
aF120
aF120
aF85
aF15
aF110
aF75
aF75
aF30
aF65
aF30
aF90
aF45
aF75
aF65
aF75
aF100
aF150
aF75
aF105
aF80
aF80
aF80
aF105
aF90
aF70
aF90
aF210
aF90
aF90
aF90
aF90
aF135
aF210
aF120
aF110
aF90
aF90
aF135
aF125
aF155
aF125
aF335
aF370
aF100
aF170
aF90
aF125
aF90
aF180
aF110
aF265
aF285
aF105
aF30
aF85
aF430
aF50
aF30
aF110
aF75
aF55
aF150
aF65
aF80
aF110
aF200
aF80
aF115
aF65
aF30
aF50
aF65
aF115
aF135
aF210
aF420
aF140
aF115
aF150
aF100
aF60
aF135
aF80
aF135
aF90
aF210
aF105
aF105
aF355
aF290
aF90
aF90
aF135
aF185
aF155
aF270
aF310
aF205
aF185
aF135
aF210
aF260
aF85
aF140
aF320
aF105
aF190
aF185
aF260
aF135
aF260
aF15
aF385
aF90
aF120
aF110
aF275
aF75
aF215
aF275
aF215
aF130
aF195
aF180
aF205
aF150
aF260
aF165
aF165
aF145
aF255
aF190
aF225
aF455
aF160
aF150
aF180
aF510
aF255
aF465
aF170
aF150
aF160
aF45
aF75
aF105
aF150
aF125
aF50
aF195
aF185
aF70
aF265
aF105
aF60
aF155
aF135
aF100
aF145
aF140
aF60
aF110
aF55
aF190
aF180
aF75
aF120
aF130
aF215
aF260
aF185
aF260
aF180
aF245
aF60
aF105
aF450
aF220
aF185
aF230
aF105
aF45
aF105
aF105
aF30
aF280
aF110
aF50
aF75
aF210
aF55
aF95
aF150
aF80
aF135
aF100
aF150
aF255
aF235
aF95
aF160
aF225
aF155
aF270
aF250
aF200
aF180
aF155
aF210
aF90
aF225
aF190
aF175
aF165
aF125
aF45
aF185
aF85
aF135
aF245
aF105
aF180
aF90
aF105
aF135
aF80
aF50
aF95
aF60
aF65
aF165
aF160
aF240
aF230
aF230
aF110
aF225
aF205
aF135
aF150
aF180
aF35
aF260
aF185
aF120
aF95
aF75
aF80
aF85
aF105
aF90
aF75
aF85
aF85
aF85
aF140
aF340
aF120
aF210
aF80
aF140
aF80
aF125
aF95
aF75
aF55
aF65
aF50
aF55
aF60
aF50
aF60
aF60
aF65
aF65
aF95
aF65
aF65
aF45
aF65
aF80
aF50
aF50
aF50
aF135
aF50
aF30
aF65
aF50
aF75
aF50
aF50
aF105
aF60
aF50
aF50
aF80
aF80
aF30
aF50
aF50
aF10
aF105
aF95
aF110
aF85
aF155
aF135
aF40
aF40
aF105
aF60
aF60
aF60
aF60
aF50
aF105
aF60
aF95
aF65
aF130
aF105
aF95
aF55
aF50
aF50
aF155
aF105
aF85
aF105
aF80
aF110
aF120
aF80
aF155
aF160
aF95
aF80
aF85
aF65
aF60
aF75
aF60
aF50
aF50
aF70
aF35
aF50
aF15
aF60
aF50
aF60
aF85
aF50
aF50
aF95
aF135
aF90
aF340
aF155
aF485
aF165
aF240
aF150
aF220
aF295
aF250
aF180
aF440
aF140
aF190
aF110
aF90
aF140
aF145
aF90
aF130
aF130
aF85
aF155
aF150
aF105
aF125
aF125
aF95
aF80
aF60
aF130
aF105
aF105
aF120
aF95
aF130
aF95
aF80
aF85
aF50
aF75
aF105
aF150
aF60
aF70
aF65
aF135
aF320
aF160
aF190
aF105
aF105
aF255
aF125
aF255
aF115
aF125
aF170
aF105
aF355
aF420
aF105
aF85
aF105
aF170
aF200
aF120
aF170
aF110
aF55
aF45
aF130
aF130
aF180
aF75
aF375
aF160
aF350
aF235
aF365
aF180
aF245
aF210
aF130
aF105
aF210
aF105
aF180
aF165
aF80
aF135
aF215
aF265
aF140
aF200
aF205
aF185
aF240
aF165
aF125
aF85
aF90
aF75
aF95
aF155
aF55
aF135
aF120
aF105
aF295
aF105
aF215
aF140
aF90
aF140
aF55
aF65
aF55
aF150
aF100
aF165
aF135
aF275
aF225
aF90
aF110
aF95
aF85
aF195
aF85
aF80
aF185
aF75
aF75
aF140
aF240
aF180
aF185
aF150
aF170
aF95
aF110
aF105
aF190
aF105
aF45
aF145
aF75
aF150
aF95
aF75
aF95
aF115
aF90
aF105
aF95
aF165
aF80
aF290
aF90
aF120
aF75
aF85
aF90
aF80
aF30
aF120
aF40
aF65
aF205
aF135
aF140
aF150
aF105
aF45
aF165
aF75
aF195
aF135
aF270
aF50
aF120
aF330
aF55
aF210
aF95
aF215
aF255
aF115
aF95
aF75
aF135
aF135
aF50
aF125
aF430
aF210
aF135
aF55
aF60
aF75
aF95
aF50
aF135
aF145
aF45
aF110
aF80
aF95
aF140
aF60
aF120
aF100
aF75
aF75
aF30
aF90
aF80
aF460
aF90
aF55
aF125
aF75
aF50
aF50
aF30
aF120
aF210
aF90
aF90
aF60
aF60
aF80
aF125
aF50
aF50
aF120
aF75
aF75
aF65
aF110
aF115
aF260
aF60
aF80
aF70
aF95
aF65
aF465
aF95
aF80
aF90
aF95
aF235
aF170
aF165
aF320
aF135
aF165
aF230
aF130
aF195
aF85
aF250
aF230
aF105
aF140
aF395
aF90
aF50
aF55
aF185
aF65
aF185
aF80
aF190
aF110
aF80
aF115
aF115
aF60
aF120
aF75
aF75
aF100
aF50
aF30
aF120
aF170
aF425
aF140
aF80
aF75
aF130
aF75
aF245
aF310
aF240
aF245
aF220
aF225
aF105
aF150
aF240
aF150
aF110
aF135
aF45
aF120
aF140
aF140
aF100
aF140
aF130
aF215
aF220
aF225
aF135
aF265
aF330
aF125
aF210
aF295
aF130
aF50
aF175
aF95
aF155
aF415
aF110
aF150
aF210
aF145
aF135
aF420
aF210
aF180
aF230
aF270
aF170
aF300
aF210
aF280
aF235
aF295
aF170
aF125
aF155
aF50
aF275
aF95
aF140
aF255
aF105
aF260
aF230
aF240
aF260
aF105
aF105
aF155
aF105
aF75
aF135
aF490
aF30
aF210
aF105
aF30
aF65
aF50
aF230
aF110
aF80
aF75
aF100
aF75
aF320
aF75
aF340
aF110
aF210
aF115
aF125
aF170
aF210
aF75
aF180
aF265
aF115
aF165
aF315
aF260
aF75
aF95
aF65
aF240
aF220
aF135
aF125
aF80
aF80
aF95
aF430
aF165
aF75
aF50
aF110
aF80
aF195
aF65
aF125
aF80
aF255
aF130
aF75
aF105
aF75
aF200
aF105
aF175
aF140
aF185
aF50
aF475
aF235
aF125
aF80
aF245
aF50
aF50
aF75
aF210
aF110
aF95
aF150
aF135
aF105
aF275
aF245
aF465
aF75
aF80
aF80
aF255
aF185
aF180
aF155
aF245
aF185
aF80
aF110
aF80
aF80
aF135
aF120
aF185
aF160
aF155
aF65
aF135
aF155
aF180
aF50
aF285
aF105
aF140
aF230
aF150
aF180
aF150
aF125
aF155
aF30
aF170
aF130
aF125
aF125
aF175
aF135
aF155
aF190
aF75
aF75
aF95
aF285
aF195
aF95
aF270
aF125
aF110
aF225
aF365
aF135
aF90
aF105
aF115
aF180
aF190
aF125
aF190
aF50
aF170
aF240
aF250
aF105
aF80
aF145
aF210
aF205
aF80
aF335
aF150
aF180
aF135
aF50
aF80
aF80
aF80
aF255
aF320
aF245
aF75
aF440
aF285
aF125
aF50
aF125
aF410
aF165
aF135
aF380
aF105
aF105
aF105
aF135
aF155
aF155
aF105
aF195
aF255
aF45
aF60
aF30
aF50
aF155
aF135
aF155
aF210
aF50
aF150
aF150
aF155
aF260
aF135
aF75
aF50
aF85
aF215
aF360
aF50
aF110
aF75
aF145
aF245
aF70
aF60
aF210
aF140
aF90
aF210
aF150
aF135
aF105
aF75
aF150
aF105
aF75
aF125
aF155
aF210
aF105
aF105
aF105
aF155
aF110
aF180
aF75
aF400
aF210
aF235
aF240
aF230
aF105
aF105
aF50
aF150
aF50
aF185
aF150
aF180
aF215
aF180
aF180
aF160
aF80
aF135
aF135
aF180
aF80
aF155
aF65
aF280
aF215
aF105
aF180
aF210
aF215
aF105
aF125
aF195
aF215
aF165
aF135
aF50
aF110
aF205
aF75
aF265
aF125
aF140
aF130
aF155
aF180
aF245
aF75
aF65
aF125
aF210
aF170
aF125
aF105
aF120
aF130
aF125
aF105
aF50
aF255
aF105
aF105
aF75
aF200
aF75
aF75
aF75
aF85
aF70
aF60
aF100
aF60
aF175
aF120
aF105
aF215
aF80
aF190
aF255
aF50
aF225
aF105
aF105
aF105
aF105
aF105
aF150
aF125
aF125
aF95
aF50
aF150
aF30
aF105
aF55
aF105
aF50
aF150
aF105
aF55
aF50
aF145
aF105
aF155
aF125
aF200
aF55
aF50
aF100
aF100
aF100
aF75
aF80
aF75
aF75
aF65
aF80
aF75
aF75
aF70
aF105
aF130
aF215
aF120
aF105
aF110
aF125
aF80
aF50
aF95
aF170
aF75
aF150
aF155
aF130
aF140
aF150
aF105
aF105
aF105
aF75
aF150
aF135
aF105
aF105
aF105
aF110
aF50
aF120
aF50
aF50
aF75
aF150
aF125
aF75
aF150
aF85
aF130
aF180
aF125
aF110
aF140
aF55
aF140
aF55
aF135
aF125
aF170
aF125
aF155
aF125
aF125
aF125
aF100
aF45
aF105
aF120
aF170
aF40
aF65
aF105
aF170
aF110
aF180
aF165
aF125
aF90
aF50
aF130
aF85
aF120
aF80
aF105
aF75
aF65
aF125
aF70
aF120
aF75
aF105
aF150
aF125
aF90
aF120
aF105
aF105
aF50
aF105
aF135
aF75
aF105
aF305
aF155
aF140
aF50
aF135
aF50
aF135
aF75
aF100
aF110
aF180
aF180
aF50
aF50
aF125
aF75
aF80
aF60
aF75
aF50
aF125
aF75
aF80
aF120
aF95
aF105
aF135
aF70
aF135
aF50
aF50
aF165
aF165
aF50
aF120
aF140
aF90
aF375
aF70
aF50
aF90
aF100
aF105
aF135
aF50
aF125
aF45
aF155
aF75
aF105
aF50
aF125
aF50
aF105
aF180
aF120
aF90
aF80
aF50
aF105
aF165
aF135
aF445
aF230
aF140
aF50
aF50
aF335
aF110
aF90
aF50
aF215
aF50
aF140
aF140
aF425
aF75
aF75
aF135
aF185
aF75
aF335
aF105
aF110
aF105
aF105
aF170
aF130
aF55
aF155
aF50
aF50
aF150
aF100
aF210
aF150
aF350
aF185
aF140
aF50
aF155
aF530
aF50
aF140
aF80
aF110
aF80
aF155
aF175
aF80
aF105
aF35
aF120
aF150
aF285
aF160
aF45
aF50
aF50
aF130
aF55
aF105
aF275
aF530
aF270
aF70
aF200
aF125
aF345
aF100
aF120
aF140
aF200
aF105
aF60
aF60
aF170
aF210
aF185
aF140
aF160
aF65
aF100
aF155
aF165
aF50
aF55
aF105
aF160
aF45
aF50
aF110
aF80
aF170
aF50
aF50
aF110
aF80
aF125
aF110
aF110
aF110
aF160
aF60
aF105
aF80
aF165
aF155
aF160
aF175
aF120
aF150
aF65
aF45
aF100
aF80
aF50
aF105
aF60
aF65
aF120
aF155
aF170
aF95
aF140
aF100
aF280
aF155
aF110
aF225
aF160
aF140
aF155
aF115
aF240
aF105
aF335
aF110
aF45
aF100
aF150
aF100
aF50
aF80
aF135
aF140
aF80
aF125
aF150
aF70
aF120
aF105
aF160
aF120
aF80
aF80
aF125
aF240
aF135
aF80
aF105
aF155
aF50
aF90
aF125
aF205
aF140
aF75
aF80
aF105
aF100
aF40
aF40
aF40
aF40
aF75
aF155
aF90
aF270
aF105
aF200
aF165
aF120
aF95
aF55
aF80
aF245
aF110
aF110
aF115
aF50
aF105
aF80
aF70
aF215
aF335
aF280
aF100
aF160
aF80
aF60
aF150
aF225
aF110
aF35
aF75
aF325
aF100
aF55
aF30
aF115
aF115
aF50
aF55
aF105
aF45
aF40
aF50
aF130
aF115
aF55
aF170
aF105
aF105
aF100
aF330
aF125
aF65
aF155
aF50
aF175
aF105
aF55
aF400
aF110
aF135
aF340
aF40
aF175
aF125
aF120
aF45
aF80
aF80
aF240
aF55
aF75
aF40
aF50
aF55
aF130
aF55
aF105
aF80
aF65
aF30
aF310
aF45
aF375
aF115
aF55
aF105
aF100
aF50
aF105
aF180
aF105
aF140
aF105
aF30
aF45
aF125
aF30
aF90
aF40
aF155
aF85
aF50
aF85
aF30
aF170
aF95
aF140
aF120
aF30
aF135
aF50
aF130
aF360
aF280
aF135
aF75
aF20
aF70
aF130
aF210
aF50
aF75
aF95
aF220
aF115
aF125
aF120
aF140
aF150
aF105
aF120
aF150
aF420
aF110
aF140
aF90
aF55
aF50
aF50
aF75
aF105
aF50
aF125
aF85
aF45
aF135
aF35
aF90
aF55
aF40
aF105
aF100
aF30
aF50
aF250
aF75
aF135
aF75
aF50
aF50
aF55
aF335
aF75
aF120
aF375
aF55
aF75
aF105
aF105
aF160
aF155
aF210
aF105
aF110
aF45
aF300
aF30
aF205
aF195
aF75
aF260
aF105
aF155
aF120
aF110
aF365
aF135
aF180
aF170
aF75
aF90
aF155
aF75
aF45
aF40
aF110
aF75
aF40
aF135
aF125
aF105
aF110
aF70
aF125
aF80
aF160
aF255
aF110
aF80
aF135
aF170
aF80
aF115
aF220
aF475
aF135
aF165
aF170
aF155
aF175
aF460
aF155
aF170
aF210
aF90
aF85
aF125
aF65
aF65
aF90
aF150
aF30
aF75
aF110
aF80
aF50
aF50
aF95
aF40
aF70
aF50
aF345
aF145
aF185
aF135
aF70
aF210
aF105
aF50
aF75
aF105
aF135
aF270
aF70
aF75
aF75
aF35
aF150
aF445
aF55
aF145
aF105
aF40
aF105
aF105
aF45
aF150
aF125
aF95
aF105
aF185
aF60
aF260
aF130
aF125
aF70
aF55
aF85
aF40
aF180
aF105
aF75
aF155
aF40
aF65
aF30
aF105
aF80
aF265
aF110
aF135
aF80
aF20
aF110
aF225
aF95
aF135
aF60
aF40
aF70
aF70
aF50
aF40
aF150
aF205
aF125
aF130
aF135
aF125
aF440
aF130
aF195
aF110
aF50
aF50
aF50
aF75
aF185
aF125
aF155
aF80
aF255
aF120
aF255
aF190
aF125
aF215
aF410
aF105
aF135
aF105
aF50
aF175
aF115
aF215
aF135
aF35
aF170
aF130
aF145
aF150
aF455
aF120
aF105
aF170
aF105
aF125
aF105
aF135
aF125
aF75
aF50
aF125
aF120
aF105
aF415
aF135
aF50
aF75
aF105
aF40
aF140
aF75
aF110
aF50
aF105
aF105
aF85
aF150
aF30
aF110
aF105
aF105
aF70
aF65
aF55
aF105
aF95
aF175
aF135
aF165
aF90
aF50
aF105
aF140
aF135
aF50
aF135
aF125
aF95
aF105
aF60
aF140
aF70
aF125
aF140
aF160
aF135
aF170
aF485
aF50
aF50
aF50
aF175
aF80
aF170
aF90
aF250
aF125
aF105
aF175
aF90
aF80
aF210
aF90
aF150
aF135
aF75
aF135
aF245
aF75
aF50
aF105
aF155
aF75
aF55
aF125
aF105
aF120
aF305
aF40
aF55
aF150
aF110
aF120
aF105
aF455
aF75
aF75
aF35
aF105
aF180
aF75
aF130
aF55
aF125
aF125
aF105
aF50
aF110
aF35
aF55
aF125
aF110
aF105
aF105
aF75
aF70
aF135
aF445
aF110
aF85
aF165
aF110
aF105
aF240
aF55
aF150
aF75
aF105
asS'episode'
p6
(lp7
I0
aI1
aI2
aI3
aI4
aI5
aI6
aI7
aI8
aI9
aI10
aI11
aI12
aI13
aI14
aI15
aI16
aI17
aI18
aI19
aI20
aI21
aI22
aI23
aI24
aI25
aI26
aI27
aI28
aI29
aI30
aI31
aI32
aI33
aI34
aI35
aI36
aI37
aI38
aI39
aI40
aI41
aI42
aI43
aI44
aI45
aI46
aI47
aI48
aI49
aI50
aI51
aI52
aI53
aI54
aI55
aI56
aI57
aI58
aI59
aI60
aI61
aI62
aI63
aI64
aI65
aI66
aI67
aI68
aI69
aI70
aI71
aI72
aI73
aI74
aI75
aI76
aI77
aI78
aI79
aI80
aI81
aI82
aI83
aI84
aI85
aI86
aI87
aI88
aI89
aI90
aI91
aI92
aI93
aI94
aI95
aI96
aI97
aI98
aI99
aI100
aI101
aI102
aI103
aI104
aI105
aI106
aI107
aI108
aI109
aI110
aI111
aI112
aI113
aI114
aI115
aI116
aI117
aI118
aI119
aI120
aI121
aI122
aI123
aI124
aI125
aI126
aI127
aI128
aI129
aI130
aI131
aI132
aI133
aI134
aI135
aI136
aI137
aI138
aI139
aI140
aI141
aI142
aI143
aI144
aI145
aI146
aI147
aI148
aI149
aI150
aI151
aI152
aI153
aI154
aI155
aI156
aI157
aI158
aI159
aI160
aI161
aI162
aI163
aI164
aI165
aI166
aI167
aI168
aI169
aI170
aI171
aI172
aI173
aI174
aI175
aI176
aI177
aI178
aI179
aI180
aI181
aI182
aI183
aI184
aI185
aI186
aI187
aI188
aI189
aI190
aI191
aI192
aI193
aI194
aI195
aI196
aI197
aI198
aI199
aI200
aI201
aI202
aI203
aI204
aI205
aI206
aI207
aI208
aI209
aI210
aI211
aI212
aI213
aI214
aI215
aI216
aI217
aI218
aI219
aI220
aI221
aI222
aI223
aI224
aI225
aI226
aI227
aI228
aI229
aI230
aI231
aI232
aI233
aI234
aI235
aI236
aI237
aI238
aI239
aI240
aI241
aI242
aI243
aI244
aI245
aI246
aI247
aI248
aI249
aI250
aI251
aI252
aI253
aI254
aI255
aI256
aI257
aI258
aI259
aI260
aI261
aI262
aI263
aI264
aI265
aI266
aI267
aI268
aI269
aI270
aI271
aI272
aI273
aI274
aI275
aI276
aI277
aI278
aI279
aI280
aI281
aI282
aI283
aI284
aI285
aI286
aI287
aI288
aI289
aI290
aI291
aI292
aI293
aI294
aI295
aI296
aI297
aI298
aI299
aI300
aI301
aI302
aI303
aI304
aI305
aI306
aI307
aI308
aI309
aI310
aI311
aI312
aI313
aI314
aI315
aI316
aI317
aI318
aI319
aI320
aI321
aI322
aI323
aI324
aI325
aI326
aI327
aI328
aI329
aI330
aI331
aI332
aI333
aI334
aI335
aI336
aI337
aI338
aI339
aI340
aI341
aI342
aI343
aI344
aI345
aI346
aI347
aI348
aI349
aI350
aI351
aI352
aI353
aI354
aI355
aI356
aI357
aI358
aI359
aI360
aI361
aI362
aI363
aI364
aI365
aI366
aI367
aI368
aI369
aI370
aI371
aI372
aI373
aI374
aI375
aI376
aI377
aI378
aI379
aI380
aI381
aI382
aI383
aI384
aI385
aI386
aI387
aI388
aI389
aI390
aI391
aI392
aI393
aI394
aI395
aI396
aI397
aI398
aI399
aI400
aI401
aI402
aI403
aI404
aI405
aI406
aI407
aI408
aI409
aI410
aI411
aI412
aI413
aI414
aI415
aI416
aI417
aI418
aI419
aI420
aI421
aI422
aI423
aI424
aI425
aI426
aI427
aI428
aI429
aI430
aI431
aI432
aI433
aI434
aI435
aI436
aI437
aI438
aI439
aI440
aI441
aI442
aI443
aI444
aI445
aI446
aI447
aI448
aI449
aI450
aI451
aI452
aI453
aI454
aI455
aI456
aI457
aI458
aI459
aI460
aI461
aI462
aI463
aI464
aI465
aI466
aI467
aI468
aI469
aI470
aI471
aI472
aI473
aI474
aI475
aI476
aI477
aI478
aI479
aI480
aI481
aI482
aI483
aI484
aI485
aI486
aI487
aI488
aI489
aI490
aI491
aI492
aI493
aI494
aI495
aI496
aI497
aI498
aI499
aI500
aI501
aI502
aI503
aI504
aI505
aI506
aI507
aI508
aI509
aI510
aI511
aI512
aI513
aI514
aI515
aI516
aI517
aI518
aI519
aI520
aI521
aI522
aI523
aI524
aI525
aI526
aI527
aI528
aI529
aI530
aI531
aI532
aI533
aI534
aI535
aI536
aI537
aI538
aI539
aI540
aI541
aI542
aI543
aI544
aI545
aI546
aI547
aI548
aI549
aI550
aI551
aI552
aI553
aI554
aI555
aI556
aI557
aI558
aI559
aI560
aI561
aI562
aI563
aI564
aI565
aI566
aI567
aI568
aI569
aI570
aI571
aI572
aI573
aI574
aI575
aI576
aI577
aI578
aI579
aI580
aI581
aI582
aI583
aI584
aI585
aI586
aI587
aI588
aI589
aI590
aI591
aI592
aI593
aI594
aI595
aI596
aI597
aI598
aI599
aI600
aI601
aI602
aI603
aI604
aI605
aI606
aI607
aI608
aI609
aI610
aI611
aI612
aI613
aI614
aI615
aI616
aI617
aI618
aI619
aI620
aI621
aI622
aI623
aI624
aI625
aI626
aI627
aI628
aI629
aI630
aI631
aI632
aI633
aI634
aI635
aI636
aI637
aI638
aI639
aI640
aI641
aI642
aI643
aI644
aI645
aI646
aI647
aI648
aI649
aI650
aI651
aI652
aI653
aI654
aI655
aI656
aI657
aI658
aI659
aI660
aI661
aI662
aI663
aI664
aI665
aI666
aI667
aI668
aI669
aI670
aI671
aI672
aI673
aI674
aI675
aI676
aI677
aI678
aI679
aI680
aI681
aI682
aI683
aI684
aI685
aI686
aI687
aI688
aI689
aI690
aI691
aI692
aI693
aI694
aI695
aI696
aI697
aI698
aI699
aI700
aI701
aI702
aI703
aI704
aI705
aI706
aI707
aI708
aI709
aI710
aI711
aI712
aI713
aI714
aI715
aI716
aI717
aI718
aI719
aI720
aI721
aI722
aI723
aI724
aI725
aI726
aI727
aI728
aI729
aI730
aI731
aI732
aI733
aI734
aI735
aI736
aI737
aI738
aI739
aI740
aI741
aI742
aI743
aI744
aI745
aI746
aI747
aI748
aI749
aI750
aI751
aI752
aI753
aI754
aI755
aI756
aI757
aI758
aI759
aI760
aI761
aI762
aI763
aI764
aI765
aI766
aI767
aI768
aI769
aI770
aI771
aI772
aI773
aI774
aI775
aI776
aI777
aI778
aI779
aI780
aI781
aI782
aI783
aI784
aI785
aI786
aI787
aI788
aI789
aI790
aI791
aI792
aI793
aI794
aI795
aI796
aI797
aI798
aI799
aI800
aI801
aI802
aI803
aI804
aI805
aI806
aI807
aI808
aI809
aI810
aI811
aI812
aI813
aI814
aI815
aI816
aI817
aI818
aI819
aI820
aI821
aI822
aI823
aI824
aI825
aI826
aI827
aI828
aI829
aI830
aI831
aI832
aI833
aI834
aI835
aI836
aI837
aI838
aI839
aI840
aI841
aI842
aI843
aI844
aI845
aI846
aI847
aI848
aI849
aI850
aI851
aI852
aI853
aI854
aI855
aI856
aI857
aI858
aI859
aI860
aI861
aI862
aI863
aI864
aI865
aI866
aI867
aI868
aI869
aI870
aI871
aI872
aI873
aI874
aI875
aI876
aI877
aI878
aI879
aI880
aI881
aI882
aI883
aI884
aI885
aI886
aI887
aI888
aI889
aI890
aI891
aI892
aI893
aI894
aI895
aI896
aI897
aI898
aI899
aI900
aI901
aI902
aI903
aI904
aI905
aI906
aI907
aI908
aI909
aI910
aI911
aI912
aI913
aI914
aI915
aI916
aI917
aI918
aI919
aI920
aI921
aI922
aI923
aI924
aI925
aI926
aI927
aI928
aI929
aI930
aI931
aI932
aI933
aI934
aI935
aI936
aI937
aI938
aI939
aI940
aI941
aI942
aI943
aI944
aI945
aI946
aI947
aI948
aI949
aI950
aI951
aI952
aI953
aI954
aI955
aI956
aI957
aI958
aI959
aI960
aI961
aI962
aI963
aI964
aI965
aI966
aI967
aI968
aI969
aI970
aI971
aI972
aI973
aI974
aI975
aI976
aI977
aI978
aI979
aI980
aI981
aI982
aI983
aI984
aI985
aI986
aI987
aI988
aI989
aI990
aI991
aI992
aI993
aI994
aI995
aI996
aI997
aI998
aI999
aI1000
aI1001
aI1002
aI1003
aI1004
aI1005
aI1006
aI1007
aI1008
aI1009
aI1010
aI1011
aI1012
aI1013
aI1014
aI1015
aI1016
aI1017
aI1018
aI1019
aI1020
aI1021
aI1022
aI1023
aI1024
aI1025
aI1026
aI1027
aI1028
aI1029
aI1030
aI1031
aI1032
aI1033
aI1034
aI1035
aI1036
aI1037
aI1038
aI1039
aI1040
aI1041
aI1042
aI1043
aI1044
aI1045
aI1046
aI1047
aI1048
aI1049
aI1050
aI1051
aI1052
aI1053
aI1054
aI1055
aI1056
aI1057
aI1058
aI1059
aI1060
aI1061
aI1062
aI1063
aI1064
aI1065
aI1066
aI1067
aI1068
aI1069
aI1070
aI1071
aI1072
aI1073
aI1074
aI1075
aI1076
aI1077
aI1078
aI1079
aI1080
aI1081
aI1082
aI1083
aI1084
aI1085
aI1086
aI1087
aI1088
aI1089
aI1090
aI1091
aI1092
aI1093
aI1094
aI1095
aI1096
aI1097
aI1098
aI1099
aI1100
aI1101
aI1102
aI1103
aI1104
aI1105
aI1106
aI1107
aI1108
aI1109
aI1110
aI1111
aI1112
aI1113
aI1114
aI1115
aI1116
aI1117
aI1118
aI1119
aI1120
aI1121
aI1122
aI1123
aI1124
aI1125
aI1126
aI1127
aI1128
aI1129
aI1130
aI1131
aI1132
aI1133
aI1134
aI1135
aI1136
aI1137
aI1138
aI1139
aI1140
aI1141
aI1142
aI1143
aI1144
aI1145
aI1146
aI1147
aI1148
aI1149
aI1150
aI1151
aI1152
aI1153
aI1154
aI1155
aI1156
aI1157
aI1158
aI1159
aI1160
aI1161
aI1162
aI1163
aI1164
aI1165
aI1166
aI1167
aI1168
aI1169
aI1170
aI1171
aI1172
aI1173
aI1174
aI1175
aI1176
aI1177
aI1178
aI1179
aI1180
aI1181
aI1182
aI1183
aI1184
aI1185
aI1186
aI1187
aI1188
aI1189
aI1190
aI1191
aI1192
aI1193
aI1194
aI1195
aI1196
aI1197
aI1198
aI1199
aI1200
aI1201
aI1202
aI1203
aI1204
aI1205
aI1206
aI1207
aI1208
aI1209
aI1210
aI1211
aI1212
aI1213
aI1214
aI1215
aI1216
aI1217
aI1218
aI1219
aI1220
aI1221
aI1222
aI1223
aI1224
aI1225
aI1226
aI1227
aI1228
aI1229
aI1230
aI1231
aI1232
aI1233
aI1234
aI1235
aI1236
aI1237
aI1238
aI1239
aI1240
aI1241
aI1242
aI1243
aI1244
aI1245
aI1246
aI1247
aI1248
aI1249
aI1250
aI1251
aI1252
aI1253
aI1254
aI1255
aI1256
aI1257
aI1258
aI1259
aI1260
aI1261
aI1262
aI1263
aI1264
aI1265
aI1266
aI1267
aI1268
aI1269
aI1270
aI1271
aI1272
aI1273
aI1274
aI1275
aI1276
aI1277
aI1278
aI1279
aI1280
aI1281
aI1282
aI1283
aI1284
aI1285
aI1286
aI1287
aI1288
aI1289
aI1290
aI1291
aI1292
aI1293
aI1294
aI1295
aI1296
aI1297
aI1298
aI1299
aI1300
aI1301
aI1302
aI1303
aI1304
aI1305
aI1306
aI1307
aI1308
aI1309
aI1310
aI1311
aI1312
aI1313
aI1314
aI1315
aI1316
aI1317
aI1318
aI1319
aI1320
aI1321
aI1322
aI1323
aI1324
aI1325
aI1326
aI1327
aI1328
aI1329
aI1330
aI1331
aI1332
aI1333
aI1334
aI1335
aI1336
aI1337
aI1338
aI1339
aI1340
aI1341
aI1342
aI1343
aI1344
aI1345
aI1346
aI1347
aI1348
aI1349
aI1350
aI1351
aI1352
aI1353
aI1354
aI1355
aI1356
aI1357
aI1358
aI1359
aI1360
aI1361
aI1362
aI1363
aI1364
aI1365
aI1366
aI1367
aI1368
aI1369
aI1370
aI1371
aI1372
aI1373
aI1374
aI1375
aI1376
aI1377
aI1378
aI1379
aI1380
aI1381
aI1382
aI1383
aI1384
aI1385
aI1386
aI1387
aI1388
aI1389
aI1390
aI1391
aI1392
aI1393
aI1394
aI1395
aI1396
aI1397
aI1398
aI1399
aI1400
aI1401
aI1402
aI1403
aI1404
aI1405
aI1406
aI1407
aI1408
aI1409
aI1410
aI1411
aI1412
aI1413
aI1414
aI1415
aI1416
aI1417
aI1418
aI1419
aI1420
aI1421
aI1422
aI1423
aI1424
aI1425
aI1426
aI1427
aI1428
aI1429
aI1430
aI1431
aI1432
aI1433
aI1434
aI1435
aI1436
aI1437
aI1438
aI1439
aI1440
aI1441
aI1442
aI1443
aI1444
aI1445
aI1446
aI1447
aI1448
aI1449
aI1450
aI1451
aI1452
aI1453
aI1454
aI1455
aI1456
aI1457
aI1458
aI1459
aI1460
aI1461
aI1462
aI1463
aI1464
aI1465
aI1466
aI1467
aI1468
aI1469
aI1470
aI1471
aI1472
aI1473
aI1474
aI1475
aI1476
aI1477
aI1478
aI1479
aI1480
aI1481
aI1482
aI1483
aI1484
aI1485
aI1486
aI1487
aI1488
aI1489
aI1490
aI1491
aI1492
aI1493
aI1494
aI1495
aI1496
aI1497
aI1498
aI1499
aI1500
aI1501
aI1502
aI1503
aI1504
aI1505
aI1506
aI1507
aI1508
aI1509
aI1510
aI1511
aI1512
aI1513
aI1514
aI1515
aI1516
aI1517
aI1518
aI1519
aI1520
aI1521
aI1522
aI1523
aI1524
aI1525
aI1526
aI1527
aI1528
aI1529
aI1530
aI1531
aI1532
aI1533
aI1534
aI1535
aI1536
aI1537
aI1538
aI1539
aI1540
aI1541
aI1542
aI1543
aI1544
aI1545
aI1546
aI1547
aI1548
aI1549
aI1550
aI1551
aI1552
aI1553
aI1554
aI1555
aI1556
aI1557
aI1558
aI1559
aI1560
aI1561
aI1562
aI1563
aI1564
aI1565
aI1566
aI1567
aI1568
aI1569
aI1570
aI1571
aI1572
aI1573
aI1574
aI1575
aI1576
aI1577
aI1578
aI1579
aI1580
aI1581
aI1582
aI1583
aI1584
aI1585
aI1586
aI1587
aI1588
aI1589
aI1590
aI1591
aI1592
aI1593
aI1594
aI1595
aI1596
aI1597
aI1598
aI1599
aI1600
aI1601
aI1602
aI1603
aI1604
aI1605
aI1606
aI1607
aI1608
aI1609
aI1610
aI1611
aI1612
aI1613
aI1614
aI1615
aI1616
aI1617
aI1618
aI1619
aI1620
aI1621
aI1622
aI1623
aI1624
aI1625
aI1626
aI1627
aI1628
aI1629
aI1630
aI1631
aI1632
aI1633
aI1634
aI1635
aI1636
aI1637
aI1638
aI1639
aI1640
aI1641
aI1642
aI1643
aI1644
aI1645
aI1646
aI1647
aI1648
aI1649
aI1650
aI1651
aI1652
aI1653
aI1654
aI1655
aI1656
aI1657
aI1658
aI1659
aI1660
aI1661
aI1662
aI1663
aI1664
aI1665
aI1666
aI1667
aI1668
aI1669
aI1670
aI1671
aI1672
aI1673
aI1674
aI1675
aI1676
aI1677
aI1678
aI1679
aI1680
aI1681
aI1682
aI1683
aI1684
aI1685
aI1686
aI1687
aI1688
aI1689
aI1690
aI1691
aI1692
aI1693
aI1694
aI1695
aI1696
aI1697
aI1698
aI1699
aI1700
aI1701
aI1702
aI1703
aI1704
aI1705
aI1706
aI1707
aI1708
aI1709
aI1710
aI1711
aI1712
aI1713
aI1714
aI1715
aI1716
aI1717
aI1718
aI1719
aI1720
aI1721
aI1722
aI1723
aI1724
aI1725
aI1726
aI1727
aI1728
aI1729
aI1730
aI1731
aI1732
aI1733
aI1734
aI1735
aI1736
aI1737
aI1738
aI1739
aI1740
aI1741
aI1742
aI1743
aI1744
aI1745
aI1746
aI1747
aI1748
aI1749
aI1750
aI1751
aI1752
aI1753
aI1754
aI1755
aI1756
aI1757
aI1758
aI1759
aI1760
aI1761
aI1762
aI1763
aI1764
aI1765
aI1766
aI1767
aI1768
aI1769
aI1770
aI1771
aI1772
aI1773
aI1774
aI1775
aI1776
aI1777
aI1778
aI1779
aI1780
aI1781
aI1782
aI1783
aI1784
aI1785
aI1786
aI1787
aI1788
aI1789
aI1790
aI1791
aI1792
aI1793
aI1794
aI1795
aI1796
aI1797
aI1798
aI1799
aI1800
aI1801
aI1802
aI1803
aI1804
aI1805
aI1806
aI1807
aI1808
aI1809
aI1810
aI1811
aI1812
aI1813
aI1814
aI1815
aI1816
aI1817
aI1818
aI1819
aI1820
aI1821
aI1822
aI1823
aI1824
aI1825
aI1826
aI1827
aI1828
aI1829
aI1830
aI1831
aI1832
aI1833
aI1834
aI1835
aI1836
aI1837
aI1838
aI1839
aI1840
aI1841
aI1842
aI1843
aI1844
aI1845
aI1846
aI1847
aI1848
aI1849
aI1850
aI1851
aI1852
aI1853
aI1854
aI1855
aI1856
aI1857
aI1858
aI1859
aI1860
aI1861
aI1862
aI1863
aI1864
aI1865
aI1866
aI1867
aI1868
aI1869
aI1870
aI1871
aI1872
aI1873
aI1874
aI1875
aI1876
aI1877
aI1878
aI1879
aI1880
aI1881
aI1882
aI1883
aI1884
aI1885
aI1886
aI1887
aI1888
aI1889
aI1890
aI1891
aI1892
aI1893
aI1894
aI1895
aI1896
aI1897
aI1898
aI1899
aI1900
aI1901
aI1902
aI1903
aI1904
aI1905
aI1906
aI1907
aI1908
aI1909
aI1910
aI1911
aI1912
aI1913
aI1914
aI1915
aI1916
aI1917
aI1918
aI1919
aI1920
aI1921
aI1922
aI1923
aI1924
aI1925
aI1926
aI1927
aI1928
aI1929
aI1930
aI1931
aI1932
aI1933
aI1934
aI1935
aI1936
aI1937
aI1938
aI1939
aI1940
aI1941
aI1942
aI1943
aI1944
aI1945
aI1946
aI1947
aI1948
aI1949
aI1950
aI1951
aI1952
aI1953
aI1954
aI1955
aI1956
aI1957
aI1958
aI1959
aI1960
aI1961
aI1962
aI1963
aI1964
aI1965
aI1966
aI1967
aI1968
aI1969
aI1970
aI1971
aI1972
aI1973
aI1974
aI1975
aI1976
aI1977
aI1978
aI1979
aI1980
aI1981
aI1982
aI1983
aI1984
aI1985
aI1986
aI1987
aI1988
aI1989
aI1990
aI1991
aI1992
aI1993
aI1994
aI1995
aI1996
aI1997
aI1998
aI1999
aI2000
aI2001
aI2002
aI2003
aI2004
aI2005
aI2006
aI2007
aI2008
aI2009
aI2010
aI2011
aI2012
aI2013
aI2014
aI2015
aI2016
aI2017
aI2018
aI2019
aI2020
aI2021
aI2022
aI2023
aI2024
aI2025
aI2026
aI2027
aI2028
aI2029
aI2030
aI2031
aI2032
aI2033
aI2034
aI2035
aI2036
aI2037
aI2038
aI2039
aI2040
aI2041
aI2042
aI2043
aI2044
aI2045
aI2046
aI2047
aI2048
aI2049
aI2050
aI2051
aI2052
aI2053
aI2054
aI2055
aI2056
aI2057
aI2058
aI2059
aI2060
aI2061
aI2062
aI2063
aI2064
aI2065
aI2066
aI2067
aI2068
aI2069
aI2070
aI2071
aI2072
aI2073
aI2074
aI2075
aI2076
aI2077
aI2078
aI2079
aI2080
aI2081
aI2082
aI2083
aI2084
aI2085
aI2086
aI2087
aI2088
aI2089
aI2090
aI2091
aI2092
aI2093
aI2094
aI2095
aI2096
aI2097
aI2098
aI2099
aI2100
aI2101
aI2102
aI2103
aI2104
aI2105
aI2106
aI2107
aI2108
aI2109
aI2110
aI2111
aI2112
aI2113
aI2114
aI2115
aI2116
aI2117
aI2118
aI2119
aI2120
aI2121
aI2122
aI2123
aI2124
aI2125
aI2126
aI2127
aI2128
aI2129
aI2130
aI2131
aI2132
aI2133
aI2134
aI2135
aI2136
aI2137
aI2138
aI2139
aI2140
aI2141
aI2142
aI2143
aI2144
aI2145
aI2146
aI2147
aI2148
aI2149
aI2150
aI2151
aI2152
aI2153
aI2154
aI2155
aI2156
aI2157
aI2158
aI2159
aI2160
aI2161
aI2162
aI2163
aI2164
aI2165
aI2166
aI2167
aI2168
aI2169
aI2170
aI2171
aI2172
aI2173
aI2174
aI2175
aI2176
aI2177
aI2178
aI2179
aI2180
aI2181
aI2182
aI2183
aI2184
aI2185
aI2186
aI2187
aI2188
aI2189
aI2190
aI2191
aI2192
aI2193
aI2194
aI2195
aI2196
aI2197
aI2198
aI2199
aI2200
aI2201
aI2202
aI2203
aI2204
aI2205
aI2206
aI2207
aI2208
aI2209
aI2210
aI2211
aI2212
aI2213
aI2214
aI2215
aI2216
aI2217
aI2218
aI2219
aI2220
aI2221
aI2222
aI2223
aI2224
aI2225
aI2226
aI2227
aI2228
aI2229
aI2230
aI2231
aI2232
aI2233
aI2234
aI2235
aI2236
aI2237
aI2238
aI2239
aI2240
aI2241
aI2242
aI2243
aI2244
aI2245
aI2246
aI2247
aI2248
aI2249
aI2250
aI2251
aI2252
aI2253
aI2254
aI2255
aI2256
aI2257
aI2258
aI2259
aI2260
aI2261
aI2262
aI2263
aI2264
aI2265
aI2266
aI2267
aI2268
aI2269
aI2270
aI2271
aI2272
aI2273
aI2274
aI2275
aI2276
aI2277
aI2278
aI2279
aI2280
aI2281
aI2282
aI2283
aI2284
aI2285
aI2286
aI2287
aI2288
aI2289
aI2290
aI2291
aI2292
aI2293
aI2294
aI2295
aI2296
aI2297
aI2298
aI2299
aI2300
aI2301
aI2302
aI2303
aI2304
aI2305
aI2306
aI2307
aI2308
aI2309
aI2310
aI2311
aI2312
aI2313
aI2314
aI2315
aI2316
aI2317
aI2318
aI2319
aI2320
aI2321
aI2322
aI2323
aI2324
aI2325
aI2326
aI2327
aI2328
aI2329
aI2330
aI2331
aI2332
aI2333
aI2334
aI2335
aI2336
aI2337
aI2338
aI2339
aI2340
aI2341
aI2342
aI2343
aI2344
aI2345
aI2346
aI2347
aI2348
aI2349
aI2350
aI2351
aI2352
aI2353
aI2354
aI2355
aI2356
aI2357
aI2358
aI2359
aI2360
aI2361
aI2362
aI2363
aI2364
aI2365
aI2366
aI2367
aI2368
aI2369
aI2370
aI2371
aI2372
aI2373
aI2374
aI2375
aI2376
aI2377
aI2378
aI2379
aI2380
aI2381
aI2382
aI2383
aI2384
aI2385
aI2386
aI2387
aI2388
aI2389
aI2390
aI2391
aI2392
aI2393
aI2394
aI2395
aI2396
aI2397
aI2398
aI2399
aI2400
aI2401
aI2402
aI2403
aI2404
aI2405
aI2406
aI2407
aI2408
aI2409
aI2410
aI2411
aI2412
aI2413
aI2414
aI2415
aI2416
aI2417
aI2418
aI2419
aI2420
aI2421
aI2422
aI2423
aI2424
aI2425
aI2426
aI2427
aI2428
aI2429
aI2430
aI2431
aI2432
aI2433
aI2434
aI2435
aI2436
aI2437
aI2438
aI2439
aI2440
aI2441
aI2442
aI2443
aI2444
aI2445
aI2446
aI2447
aI2448
aI2449
aI2450
aI2451
aI2452
aI2453
aI2454
aI2455
aI2456
aI2457
aI2458
aI2459
aI2460
aI2461
aI2462
aI2463
aI2464
aI2465
aI2466
aI2467
aI2468
aI2469
aI2470
aI2471
aI2472
aI2473
aI2474
aI2475
aI2476
aI2477
aI2478
aI2479
aI2480
aI2481
aI2482
aI2483
aI2484
aI2485
aI2486
aI2487
aI2488
aI2489
aI2490
aI2491
aI2492
aI2493
aI2494
aI2495
aI2496
aI2497
aI2498
aI2499
aI2500
aI2501
aI2502
aI2503
aI2504
aI2505
aI2506
aI2507
aI2508
aI2509
aI2510
aI2511
aI2512
aI2513
aI2514
aI2515
aI2516
aI2517
aI2518
aI2519
aI2520
aI2521
aI2522
aI2523
aI2524
aI2525
aI2526
aI2527
aI2528
aI2529
aI2530
aI2531
aI2532
aI2533
aI2534
aI2535
aI2536
aI2537
aI2538
aI2539
aI2540
aI2541
aI2542
aI2543
aI2544
aI2545
aI2546
aI2547
aI2548
aI2549
aI2550
aI2551
aI2552
aI2553
aI2554
aI2555
aI2556
aI2557
aI2558
aI2559
aI2560
aI2561
aI2562
aI2563
aI2564
aI2565
aI2566
aI2567
aI2568
aI2569
aI2570
aI2571
aI2572
aI2573
aI2574
aI2575
aI2576
aI2577
aI2578
aI2579
aI2580
aI2581
aI2582
aI2583
aI2584
aI2585
aI2586
aI2587
aI2588
aI2589
aI2590
aI2591
aI2592
aI2593
aI2594
aI2595
aI2596
aI2597
aI2598
aI2599
aI2600
aI2601
aI2602
aI2603
aI2604
aI2605
aI2606
aI2607
aI2608
aI2609
aI2610
aI2611
aI2612
aI2613
aI2614
aI2615
aI2616
aI2617
aI2618
aI2619
aI2620
aI2621
aI2622
aI2623
aI2624
aI2625
aI2626
aI2627
aI2628
aI2629
aI2630
aI2631
aI2632
aI2633
aI2634
aI2635
aI2636
aI2637
aI2638
aI2639
aI2640
aI2641
aI2642
aI2643
aI2644
aI2645
aI2646
aI2647
aI2648
aI2649
aI2650
aI2651
aI2652
aI2653
aI2654
aI2655
aI2656
aI2657
aI2658
aI2659
aI2660
aI2661
aI2662
aI2663
aI2664
aI2665
aI2666
aI2667
aI2668
aI2669
aI2670
aI2671
aI2672
aI2673
aI2674
aI2675
aI2676
aI2677
aI2678
aI2679
aI2680
aI2681
aI2682
aI2683
aI2684
aI2685
aI2686
aI2687
aI2688
aI2689
aI2690
aI2691
aI2692
aI2693
aI2694
aI2695
aI2696
aI2697
aI2698
aI2699
aI2700
aI2701
aI2702
aI2703
aI2704
aI2705
aI2706
aI2707
aI2708
aI2709
aI2710
aI2711
aI2712
aI2713
aI2714
aI2715
aI2716
aI2717
aI2718
aI2719
aI2720
aI2721
aI2722
aI2723
aI2724
aI2725
aI2726
aI2727
aI2728
aI2729
aI2730
aI2731
aI2732
aI2733
aI2734
aI2735
aI2736
aI2737
aI2738
aI2739
aI2740
aI2741
aI2742
aI2743
aI2744
aI2745
aI2746
aI2747
aI2748
aI2749
aI2750
aI2751
aI2752
aI2753
aI2754
aI2755
aI2756
aI2757
aI2758
aI2759
aI2760
aI2761
aI2762
aI2763
aI2764
aI2765
aI2766
aI2767
aI2768
aI2769
aI2770
aI2771
aI2772
aI2773
aI2774
aI2775
aI2776
aI2777
aI2778
aI2779
aI2780
aI2781
aI2782
aI2783
aI2784
aI2785
aI2786
aI2787
aI2788
aI2789
aI2790
aI2791
aI2792
aI2793
aI2794
aI2795
aI2796
aI2797
aI2798
aI2799
aI2800
aI2801
aI2802
aI2803
aI2804
aI2805
aI2806
aI2807
aI2808
aI2809
aI2810
aI2811
aI2812
aI2813
aI2814
aI2815
aI2816
aI2817
aI2818
aI2819
aI2820
aI2821
aI2822
aI2823
aI2824
aI2825
aI2826
aI2827
aI2828
aI2829
aI2830
aI2831
aI2832
aI2833
aI2834
aI2835
aI2836
aI2837
aI2838
aI2839
aI2840
aI2841
aI2842
aI2843
aI2844
aI2845
aI2846
aI2847
aI2848
aI2849
aI2850
aI2851
aI2852
aI2853
aI2854
aI2855
aI2856
aI2857
aI2858
aI2859
aI2860
aI2861
aI2862
aI2863
aI2864
aI2865
aI2866
aI2867
aI2868
aI2869
aI2870
aI2871
aI2872
aI2873
aI2874
aI2875
aI2876
aI2877
aI2878
aI2879
aI2880
aI2881
aI2882
aI2883
aI2884
aI2885
aI2886
aI2887
aI2888
aI2889
aI2890
aI2891
aI2892
aI2893
aI2894
aI2895
aI2896
aI2897
aI2898
aI2899
aI2900
aI2901
aI2902
aI2903
aI2904
aI2905
aI2906
aI2907
aI2908
aI2909
aI2910
aI2911
aI2912
aI2913
aI2914
aI2915
aI2916
aI2917
aI2918
aI2919
aI2920
aI2921
aI2922
aI2923
aI2924
aI2925
aI2926
aI2927
aI2928
aI2929
aI2930
aI2931
aI2932
aI2933
aI2934
aI2935
aI2936
aI2937
aI2938
aI2939
aI2940
aI2941
aI2942
aI2943
aI2944
aI2945
aI2946
aI2947
aI2948
aI2949
aI2950
aI2951
aI2952
aI2953
aI2954
aI2955
aI2956
aI2957
aI2958
aI2959
aI2960
aI2961
aI2962
aI2963
aI2964
aI2965
aI2966
aI2967
aI2968
aI2969
aI2970
aI2971
aI2972
aI2973
aI2974
aI2975
aI2976
aI2977
aI2978
aI2979
aI2980
aI2981
aI2982
aI2983
aI2984
aI2985
aI2986
aI2987
aI2988
aI2989
aI2990
aI2991
aI2992
aI2993
aI2994
aI2995
aI2996
aI2997
aI2998
aI2999
as.